(lp1
(lp2
S'head_fk_anim'
p3
a(lp4
(lp5
Na(lp6
(lp7
VtranslateX
p8
a(lp9
(lp10
F0
aF0
a(lp11
Vauto
p12
aVauto
p13
aF0
aF0
aF1
aF1
aaa(lp14
F15
aF0
a(lp15
Vauto
p16
aVauto
p17
aF0
aF0
aF1
aF1
aaa(lp18
F30
aF0
a(lp19
Vauto
p20
aVauto
p21
aF0
aF0
aF1
aF1
aaaaa(lp22
VtranslateY
p23
a(lp24
(lp25
F0
aF0
a(lp26
Vauto
p27
aVauto
p28
aF0
aF0
aF1
aF1
aaa(lp29
F15
aF0
a(lp30
Vauto
p31
aVauto
p32
aF0
aF0
aF1
aF1
aaa(lp33
F30
aF0
a(lp34
Vauto
p35
aVauto
p36
aF0
aF0
aF1
aF1
aaaaa(lp37
VtranslateZ
p38
a(lp39
(lp40
F0
aF0
a(lp41
Vauto
p42
aVauto
p43
aF0
aF0
aF1
aF1
aaa(lp44
F15
aF0
a(lp45
Vauto
p46
aVauto
p47
aF0
aF0
aF1
aF1
aaa(lp48
F30
aF0
a(lp49
Vauto
p50
aVauto
p51
aF0
aF0
aF1
aF1
aaaaa(lp52
VrotateX
p53
a(lp54
(lp55
F0
aF0
a(lp56
Vauto
p57
aVauto
p58
aF0
aF0
aF1
aF1
aaa(lp59
F15
aF0
a(lp60
Vauto
p61
aVauto
p62
aF0
aF0
aF1
aF1
aaa(lp63
F30
aF0
a(lp64
Vauto
p65
aVauto
p66
aF0
aF0
aF1
aF1
aaaaa(lp67
VrotateY
p68
a(lp69
(lp70
F0
aF0
a(lp71
Vauto
p72
aVauto
p73
aF0
aF0
aF1
aF1
aaa(lp74
F15
aF0
a(lp75
Vauto
p76
aVauto
p77
aF0
aF0
aF1
aF1
aaa(lp78
F30
aF0
a(lp79
Vauto
p80
aVauto
p81
aF0
aF0
aF1
aF1
aaaaa(lp82
VrotateZ
p83
a(lp84
(lp85
F0
aF0
a(lp86
Vauto
p87
aVauto
p88
aF0
aF0
aF1
aF1
aaa(lp89
F15
aF0
a(lp90
Vauto
p91
aVauto
p92
aF0
aF0
aF1
aF1
aaa(lp93
F30
aF0
a(lp94
Vauto
p95
aVauto
p96
aF0
aF0
aF1
aF1
aaaaa(lp97
VscaleX
p98
a(lp99
(lp100
F0
aF1
a(lp101
Vauto
p102
aVauto
p103
aF0
aF0
aF1
aF1
aaa(lp104
F15
aF1
a(lp105
Vauto
p106
aVauto
p107
aF0
aF0
aF1
aF1
aaa(lp108
F30
aF1
a(lp109
Vauto
p110
aVauto
p111
aF0
aF0
aF1
aF1
aaaaa(lp112
VscaleY
p113
a(lp114
(lp115
F0
aF1
a(lp116
Vauto
p117
aVauto
p118
aF0
aF0
aF1
aF1
aaa(lp119
F15
aF1
a(lp120
Vauto
p121
aVauto
p122
aF0
aF0
aF1
aF1
aaa(lp123
F30
aF1
a(lp124
Vauto
p125
aVauto
p126
aF0
aF0
aF1
aF1
aaaaa(lp127
VscaleZ
p128
a(lp129
(lp130
F0
aF1
a(lp131
Vauto
p132
aVauto
p133
aF0
aF0
aF1
aF1
aaa(lp134
F15
aF1
a(lp135
Vauto
p136
aVauto
p137
aF0
aF0
aF1
aF1
aaa(lp138
F30
aF1
a(lp139
Vauto
p140
aVauto
p141
aF0
aF0
aF1
aF1
aaaaa(lp142
VfkOrientation
p143
a(lp144
(lp145
F0
aF0
a(lp146
Vspline
p147
aVstep
p148
aF0
aF0
aF1
aF0
aaa(lp149
F15
aF0
a(lp150
Vspline
p151
aVstep
p152
aF0
aF0
aF1
aF0
aaa(lp153
F30
aF0
a(lp154
Vspline
p155
aVstep
p156
aF0
aF0
aF1
aF0
aaaaaaaaa(lp157
S'neck_01_fk_anim'
p158
a(lp159
(lp160
Na(lp161
(lp162
VtranslateX
p163
a(lp164
(lp165
F0
aF0
a(lp166
Vauto
p167
aVauto
p168
aF0
aF0
aF1
aF1
aaa(lp169
F15
aF0
a(lp170
Vauto
p171
aVauto
p172
aF0
aF0
aF1
aF1
aaa(lp173
F30
aF0
a(lp174
Vauto
p175
aVauto
p176
aF0
aF0
aF1
aF1
aaaaa(lp177
VtranslateY
p178
a(lp179
(lp180
F0
aF0
a(lp181
Vauto
p182
aVauto
p183
aF0
aF0
aF1
aF1
aaa(lp184
F15
aF0
a(lp185
Vauto
p186
aVauto
p187
aF0
aF0
aF1
aF1
aaa(lp188
F30
aF0
a(lp189
Vauto
p190
aVauto
p191
aF0
aF0
aF1
aF1
aaaaa(lp192
VtranslateZ
p193
a(lp194
(lp195
F0
aF0
a(lp196
Vauto
p197
aVauto
p198
aF0
aF0
aF1
aF1
aaa(lp199
F15
aF0
a(lp200
Vauto
p201
aVauto
p202
aF0
aF0
aF1
aF1
aaa(lp203
F30
aF0
a(lp204
Vauto
p205
aVauto
p206
aF0
aF0
aF1
aF1
aaaaa(lp207
VrotateX
p208
a(lp209
(lp210
F0
aF0
a(lp211
Vauto
p212
aVauto
p213
aF0
aF0
aF1
aF1
aaa(lp214
F15
aF0
a(lp215
Vauto
p216
aVauto
p217
aF0
aF0
aF1
aF1
aaa(lp218
F30
aF0
a(lp219
Vauto
p220
aVauto
p221
aF0
aF0
aF1
aF1
aaaaa(lp222
VrotateY
p223
a(lp224
(lp225
F0
aF5.649800061504203e-30
a(lp226
Vauto
p227
aVauto
p228
aF0
aF0
aF1
aF1
aaa(lp229
F15
aF5.649800061504203e-30
a(lp230
Vauto
p231
aVauto
p232
aF0
aF0
aF1
aF1
aaa(lp233
F30
aF5.649800061504203e-30
a(lp234
Vauto
p235
aVauto
p236
aF0
aF0
aF1
aF1
aaaaa(lp237
VrotateZ
p238
a(lp239
(lp240
F0
aF0
a(lp241
Vauto
p242
aVauto
p243
aF0
aF0
aF1
aF1
aaa(lp244
F15
aF0
a(lp245
Vauto
p246
aVauto
p247
aF0
aF0
aF1
aF1
aaa(lp248
F30
aF0
a(lp249
Vauto
p250
aVauto
p251
aF0
aF0
aF1
aF1
aaaaa(lp252
VscaleX
p253
a(lp254
(lp255
F0
aF1
a(lp256
Vauto
p257
aVauto
p258
aF0
aF0
aF1
aF1
aaa(lp259
F15
aF1
a(lp260
Vauto
p261
aVauto
p262
aF0
aF0
aF1
aF1
aaa(lp263
F30
aF1
a(lp264
Vauto
p265
aVauto
p266
aF0
aF0
aF1
aF1
aaaaa(lp267
VscaleY
p268
a(lp269
(lp270
F0
aF1
a(lp271
Vauto
p272
aVauto
p273
aF0
aF0
aF1
aF1
aaa(lp274
F15
aF1
a(lp275
Vauto
p276
aVauto
p277
aF0
aF0
aF1
aF1
aaa(lp278
F30
aF1
a(lp279
Vauto
p280
aVauto
p281
aF0
aF0
aF1
aF1
aaaaa(lp282
VscaleZ
p283
a(lp284
(lp285
F0
aF1
a(lp286
Vauto
p287
aVauto
p288
aF0
aF0
aF1
aF1
aaa(lp289
F15
aF1
a(lp290
Vauto
p291
aVauto
p292
aF0
aF0
aF1
aF1
aaa(lp293
F30
aF1
a(lp294
Vauto
p295
aVauto
p296
aF0
aF0
aF1
aF1
aaaaa(lp297
VfkOrientation
p298
a(lp299
(lp300
F0
aF0
a(lp301
Vspline
p302
aVstep
p303
aF0
aF0
aF1
aF0
aaa(lp304
F15
aF0
a(lp305
Vspline
p306
aVstep
p307
aF0
aF0
aF1
aF0
aaa(lp308
F30
aF0
a(lp309
Vspline
p310
aVstep
p311
aF0
aF0
aF1
aF0
aaaaaaaaa(lp312
S'neck_02_fk_anim'
p313
a(lp314
(lp315
Na(lp316
(lp317
VtranslateX
p318
a(lp319
(lp320
F0
aF0
a(lp321
Vauto
p322
aVauto
p323
aF0
aF0
aF1
aF1
aaa(lp324
F15
aF0
a(lp325
Vauto
p326
aVauto
p327
aF0
aF0
aF1
aF1
aaa(lp328
F30
aF0
a(lp329
Vauto
p330
aVauto
p331
aF0
aF0
aF1
aF1
aaaaa(lp332
VtranslateY
p333
a(lp334
(lp335
F0
aF0
a(lp336
Vauto
p337
aVauto
p338
aF0
aF0
aF1
aF1
aaa(lp339
F15
aF0
a(lp340
Vauto
p341
aVauto
p342
aF0
aF0
aF1
aF1
aaa(lp343
F30
aF0
a(lp344
Vauto
p345
aVauto
p346
aF0
aF0
aF1
aF1
aaaaa(lp347
VtranslateZ
p348
a(lp349
(lp350
F0
aF0
a(lp351
Vauto
p352
aVauto
p353
aF0
aF0
aF1
aF1
aaa(lp354
F15
aF0
a(lp355
Vauto
p356
aVauto
p357
aF0
aF0
aF1
aF1
aaa(lp358
F30
aF0
a(lp359
Vauto
p360
aVauto
p361
aF0
aF0
aF1
aF1
aaaaa(lp362
VrotateX
p363
a(lp364
(lp365
F0
aF0
a(lp366
Vauto
p367
aVauto
p368
aF0
aF0
aF1
aF1
aaa(lp369
F15
aF0
a(lp370
Vauto
p371
aVauto
p372
aF0
aF0
aF1
aF1
aaa(lp373
F30
aF0
a(lp374
Vauto
p375
aVauto
p376
aF0
aF0
aF1
aF1
aaaaa(lp377
VrotateY
p378
a(lp379
(lp380
F0
aF0
a(lp381
Vauto
p382
aVauto
p383
aF0
aF0
aF1
aF1
aaa(lp384
F15
aF0
a(lp385
Vauto
p386
aVauto
p387
aF0
aF0
aF1
aF1
aaa(lp388
F30
aF0
a(lp389
Vauto
p390
aVauto
p391
aF0
aF0
aF1
aF1
aaaaa(lp392
VrotateZ
p393
a(lp394
(lp395
F0
aF0
a(lp396
Vauto
p397
aVauto
p398
aF0
aF0
aF1
aF1
aaa(lp399
F15
aF0
a(lp400
Vauto
p401
aVauto
p402
aF0
aF0
aF1
aF1
aaa(lp403
F30
aF0
a(lp404
Vauto
p405
aVauto
p406
aF0
aF0
aF1
aF1
aaaaa(lp407
VscaleX
p408
a(lp409
(lp410
F0
aF1
a(lp411
Vauto
p412
aVauto
p413
aF0
aF0
aF1
aF1
aaa(lp414
F15
aF1
a(lp415
Vauto
p416
aVauto
p417
aF0
aF0
aF1
aF1
aaa(lp418
F30
aF1
a(lp419
Vauto
p420
aVauto
p421
aF0
aF0
aF1
aF1
aaaaa(lp422
VscaleY
p423
a(lp424
(lp425
F0
aF1
a(lp426
Vauto
p427
aVauto
p428
aF0
aF0
aF1
aF1
aaa(lp429
F15
aF1
a(lp430
Vauto
p431
aVauto
p432
aF0
aF0
aF1
aF1
aaa(lp433
F30
aF1
a(lp434
Vauto
p435
aVauto
p436
aF0
aF0
aF1
aF1
aaaaa(lp437
VscaleZ
p438
a(lp439
(lp440
F0
aF1
a(lp441
Vauto
p442
aVauto
p443
aF0
aF0
aF1
aF1
aaa(lp444
F15
aF1
a(lp445
Vauto
p446
aVauto
p447
aF0
aF0
aF1
aF1
aaa(lp448
F30
aF1
a(lp449
Vauto
p450
aVauto
p451
aF0
aF0
aF1
aF1
aaaaaaaaa(lp452
g314
aa(lp453
S'spine_01_anim'
p454
a(lp455
(lp456
Na(lp457
(lp458
Vlength
p459
a(lp460
(lp461
F0
aF0
a(lp462
Vauto
p463
aVauto
p464
aF0
aF0
aF0
aF0
aaaaa(lp465
VtranslateY
p466
a(lp467
(lp468
F0
aF0
a(lp469
Vauto
p470
aVauto
p471
aF0
aF0
aF0
aF0
aaaaa(lp472
VtranslateZ
p473
a(lp474
(lp475
F0
aF0
a(lp476
Vauto
p477
aVauto
p478
aF0
aF0
aF0
aF0
aaaaa(lp479
VrotateX
p480
a(lp481
(lp482
F0
aF0
a(lp483
Vauto
p484
aVauto
p485
aF0
aF0
aF0
aF0
aaaaa(lp486
VrotateY
p487
a(lp488
(lp489
F0
aF0
a(lp490
Vauto
p491
aVauto
p492
aF0
aF0
aF0
aF0
aaaaa(lp493
VrotateZ
p494
a(lp495
(lp496
F0
aF0
a(lp497
Vauto
p498
aVauto
p499
aF0
aF0
aF0
aF0
aaaaaaaaa(lp500
S'spine_02_anim'
p501
a(lp502
(lp503
Na(lp504
(lp505
Vlength
p506
a(lp507
(lp508
F0
aF0
a(lp509
Vauto
p510
aVauto
p511
aF0
aF0
aF0
aF0
aaaaa(lp512
VtranslateY
p513
a(lp514
(lp515
F0
aF0
a(lp516
Vauto
p517
aVauto
p518
aF0
aF0
aF0
aF0
aaaaa(lp519
VtranslateZ
p520
a(lp521
(lp522
F0
aF0
a(lp523
Vauto
p524
aVauto
p525
aF0
aF0
aF0
aF0
aaaaa(lp526
VrotateX
p527
a(lp528
(lp529
F0
aF0
a(lp530
Vauto
p531
aVauto
p532
aF0
aF0
aF0
aF0
aaaaa(lp533
VrotateY
p534
a(lp535
(lp536
F0
aF0
a(lp537
Vauto
p538
aVauto
p539
aF0
aF0
aF0
aF0
aaaaa(lp540
VrotateZ
p541
a(lp542
(lp543
F0
aF0
a(lp544
Vauto
p545
aVauto
p546
aF0
aF0
aF0
aF0
aaaaaaaaa(lp547
S'spine_03_anim'
p548
a(lp549
(lp550
Na(lp551
(lp552
Vlength
p553
a(lp554
(lp555
F0
aF0
a(lp556
Vauto
p557
aVauto
p558
aF0
aF0
aF0
aF0
aaaaa(lp559
VtranslateY
p560
a(lp561
(lp562
F0
aF0
a(lp563
Vauto
p564
aVauto
p565
aF0
aF0
aF0
aF0
aaaaa(lp566
VtranslateZ
p567
a(lp568
(lp569
F0
aF0
a(lp570
Vauto
p571
aVauto
p572
aF0
aF0
aF0
aF0
aaaaa(lp573
VrotateX
p574
a(lp575
(lp576
F0
aF0
a(lp577
Vauto
p578
aVauto
p579
aF0
aF0
aF0
aF0
aaaaa(lp580
VrotateY
p581
a(lp582
(lp583
F0
aF0
a(lp584
Vauto
p585
aVauto
p586
aF0
aF0
aF0
aF0
aaaaa(lp587
VrotateZ
p588
a(lp589
(lp590
F0
aF0
a(lp591
Vauto
p592
aVauto
p593
aF0
aF0
aF0
aF0
aaaaaaaaa(lp594
g549
aa(lp595
g549
aa(lp596
S'mid_ik_anim'
p597
a(lp598
(lp599
Na(lp600
(lp601
VtranslateX
p602
a(lp603
(lp604
F0
aF0
a(lp605
Vauto
p606
aVauto
p607
aF0
aF0
aF1
aF1
aaa(lp608
F15
aF0
a(lp609
Vauto
p610
aVauto
p611
aF0
aF0
aF1
aF1
aaa(lp612
F30
aF0
a(lp613
Vauto
p614
aVauto
p615
aF0
aF0
aF1
aF1
aaaaa(lp616
VtranslateY
p617
a(lp618
(lp619
F0
aF0
a(lp620
Vauto
p621
aVauto
p622
aF0
aF0
aF1
aF1
aaa(lp623
F15
aF0
a(lp624
Vauto
p625
aVauto
p626
aF0
aF0
aF1
aF1
aaa(lp627
F30
aF0
a(lp628
Vauto
p629
aVauto
p630
aF0
aF0
aF1
aF1
aaaaa(lp631
VtranslateZ
p632
a(lp633
(lp634
F0
aF0
a(lp635
Vauto
p636
aVauto
p637
aF0
aF0
aF1
aF1
aaa(lp638
F15
aF0
a(lp639
Vauto
p640
aVauto
p641
aF0
aF0
aF1
aF1
aaa(lp642
F30
aF0
a(lp643
Vauto
p644
aVauto
p645
aF0
aF0
aF1
aF1
aaaaa(lp646
VrotateX
p647
a(lp648
(lp649
F0
aF0
a(lp650
Vauto
p651
aVauto
p652
aF0
aF0
aF1
aF1
aaa(lp653
F15
aF0
a(lp654
Vauto
p655
aVauto
p656
aF0
aF0
aF1
aF1
aaa(lp657
F30
aF0
a(lp658
Vauto
p659
aVauto
p660
aF0
aF0
aF1
aF1
aaaaa(lp661
VrotateY
p662
a(lp663
(lp664
F0
aF0
a(lp665
Vauto
p666
aVauto
p667
aF0
aF0
aF1
aF1
aaa(lp668
F15
aF0
a(lp669
Vauto
p670
aVauto
p671
aF0
aF0
aF1
aF1
aaa(lp672
F30
aF0
a(lp673
Vauto
p674
aVauto
p675
aF0
aF0
aF1
aF1
aaaaa(lp676
VrotateZ
p677
a(lp678
(lp679
F0
aF0
a(lp680
Vauto
p681
aVauto
p682
aF0
aF0
aF1
aF1
aaa(lp683
F15
aF0
a(lp684
Vauto
p685
aVauto
p686
aF0
aF0
aF1
aF1
aaa(lp687
F30
aF0
a(lp688
Vauto
p689
aVauto
p690
aF0
aF0
aF1
aF1
aaaaaaaaa(lp691
S'chest_ik_anim'
p692
a(lp693
(lp694
Na(lp695
(lp696
VtranslateX
p697
a(lp698
(lp699
F0
aF0
a(lp700
Vauto
p701
aVauto
p702
aF0
aF0
aF1
aF1
aaa(lp703
F15
aF0
a(lp704
Vauto
p705
aVauto
p706
aF0
aF0
aF1
aF1
aaa(lp707
F30
aF0
a(lp708
Vauto
p709
aVauto
p710
aF0
aF0
aF1
aF1
aaaaa(lp711
VtranslateY
p712
a(lp713
(lp714
F0
aF0
a(lp715
Vauto
p716
aVauto
p717
aF0
aF0
aF1
aF1
aaa(lp718
F15
aF0
a(lp719
Vauto
p720
aVauto
p721
aF0
aF0
aF1
aF1
aaa(lp722
F30
aF0
a(lp723
Vauto
p724
aVauto
p725
aF0
aF0
aF1
aF1
aaaaa(lp726
VtranslateZ
p727
a(lp728
(lp729
F0
aF0
a(lp730
Vauto
p731
aVauto
p732
aF0
aF0
aF1
aF1
aaa(lp733
F15
aF0
a(lp734
Vauto
p735
aVauto
p736
aF0
aF0
aF1
aF1
aaa(lp737
F30
aF0
a(lp738
Vauto
p739
aVauto
p740
aF0
aF0
aF1
aF1
aaaaa(lp741
VrotateX
p742
a(lp743
(lp744
F0
aF0
a(lp745
Vauto
p746
aVauto
p747
aF0
aF0
aF1
aF1
aaa(lp748
F15
aF0
a(lp749
Vauto
p750
aVauto
p751
aF0
aF0
aF1
aF1
aaa(lp752
F30
aF0
a(lp753
Vauto
p754
aVauto
p755
aF0
aF0
aF1
aF1
aaaaa(lp756
VrotateY
p757
a(lp758
(lp759
F0
aF0
a(lp760
Vauto
p761
aVauto
p762
aF0
aF0
aF1
aF1
aaa(lp763
F15
aF0
a(lp764
Vauto
p765
aVauto
p766
aF0
aF0
aF1
aF1
aaa(lp767
F30
aF0
a(lp768
Vauto
p769
aVauto
p770
aF0
aF0
aF1
aF1
aaaaa(lp771
VrotateZ
p772
a(lp773
(lp774
F0
aF0
a(lp775
Vauto
p776
aVauto
p777
aF0
aF0
aF1
aF1
aaa(lp778
F15
aF0
a(lp779
Vauto
p780
aVauto
p781
aF0
aF0
aF1
aF1
aaa(lp782
F30
aF0
a(lp783
Vauto
p784
aVauto
p785
aF0
aF0
aF1
aF1
aaaaa(lp786
Vstretch
p787
a(lp788
(lp789
F0
aF0
a(lp790
Vauto
p791
aVauto
p792
aF0
aF0
aF1
aF1
aaa(lp793
F15
aF0
a(lp794
Vauto
p795
aVauto
p796
aF0
aF0
aF1
aF1
aaa(lp797
F30
aF0
a(lp798
Vauto
p799
aVauto
p800
aF0
aF0
aF1
aF1
aaaaa(lp801
Vsquash
p802
a(lp803
(lp804
F0
aF0
a(lp805
Vauto
p806
aVauto
p807
aF0
aF0
aF1
aF1
aaa(lp808
F15
aF0
a(lp809
Vauto
p810
aVauto
p811
aF0
aF0
aF1
aF1
aaa(lp812
F30
aF0
a(lp813
Vauto
p814
aVauto
p815
aF0
aF0
aF1
aF1
aaaaa(lp816
Vtwist_amount
p817
a(lp818
(lp819
F0
aF1
a(lp820
Vauto
p821
aVauto
p822
aF0
aF0
aF1
aF1
aaa(lp823
F15
aF1
a(lp824
Vauto
p825
aVauto
p826
aF0
aF0
aF1
aF1
aaa(lp827
F30
aF1
a(lp828
Vauto
p829
aVauto
p830
aF0
aF0
aF1
aF1
aaaaa(lp831
VautoSpine
p832
a(lp833
(lp834
F0
aF0
a(lp835
Vauto
p836
aVauto
p837
aF0
aF0
aF1
aF1
aaa(lp838
F15
aF0
a(lp839
Vauto
p840
aVauto
p841
aF0
aF0
aF1
aF1
aaa(lp842
F30
aF0
a(lp843
Vauto
p844
aVauto
p845
aF0
aF0
aF1
aF1
aaaaa(lp846
VrotationInfluence
p847
a(lp848
(lp849
F0
aF0.25
a(lp850
Vauto
p851
aVauto
p852
aF0
aF0
aF1
aF1
aaa(lp853
F15
aF0.25
a(lp854
Vauto
p855
aVauto
p856
aF0
aF0
aF1
aF1
aaa(lp857
F30
aF0.25
a(lp858
Vauto
p859
aVauto
p860
aF0
aF0
aF1
aF1
aaaaaaaaa(lp861
S'body_anim'
p862
a(lp863
(lp864
Na(lp865
(lp866
VtranslateX
p867
a(lp868
(lp869
F0
aF0
a(lp870
Vauto
p871
aVauto
p872
aF0
aF0
aF1
aF1
aaa(lp873
F15
aF0
a(lp874
Vauto
p875
aVauto
p876
aF0
aF0
aF1
aF1
aaa(lp877
F30
aF0
a(lp878
Vauto
p879
aVauto
p880
aF0
aF0
aF1
aF1
aaaaa(lp881
VtranslateY
p882
a(lp883
(lp884
F0
aF0
a(lp885
Vauto
p886
aVauto
p887
aF0
aF0
aF1
aF1
aaa(lp888
F15
aF0
a(lp889
Vauto
p890
aVauto
p891
aF0
aF0
aF1
aF1
aaa(lp892
F30
aF0
a(lp893
Vauto
p894
aVauto
p895
aF0
aF0
aF1
aF1
aaaaa(lp896
VtranslateZ
p897
a(lp898
(lp899
F0
aF0
a(lp900
Vauto
p901
aVauto
p902
aF0
aF0
aF1
aF1
aaa(lp903
F15
aF0
a(lp904
Vauto
p905
aVauto
p906
aF0
aF0
aF1
aF1
aaa(lp907
F30
aF0
a(lp908
Vauto
p909
aVauto
p910
aF0
aF0
aF1
aF1
aaaaa(lp911
VrotateX
p912
a(lp913
(lp914
F0
aF0
a(lp915
Vauto
p916
aVauto
p917
aF0
aF0
aF1
aF1
aaa(lp918
F15
aF0
a(lp919
Vauto
p920
aVauto
p921
aF0
aF0
aF1
aF1
aaa(lp922
F30
aF0
a(lp923
Vauto
p924
aVauto
p925
aF0
aF0
aF1
aF1
aaaaa(lp926
VrotateY
p927
a(lp928
(lp929
F0
aF0
a(lp930
Vauto
p931
aVauto
p932
aF0
aF0
aF1
aF1
aaa(lp933
F15
aF0
a(lp934
Vauto
p935
aVauto
p936
aF0
aF0
aF1
aF1
aaa(lp937
F30
aF0
a(lp938
Vauto
p939
aVauto
p940
aF0
aF0
aF1
aF1
aaaaa(lp941
VrotateZ
p942
a(lp943
(lp944
F0
aF0
a(lp945
Vauto
p946
aVauto
p947
aF0
aF0
aF1
aF1
aaa(lp948
F15
aF0
a(lp949
Vauto
p950
aVauto
p951
aF0
aF0
aF1
aF1
aaa(lp952
F30
aF0
a(lp953
Vauto
p954
aVauto
p955
aF0
aF0
aF1
aF1
aaaaaaaaa(lp956
S'hip_anim'
p957
a(lp958
(lp959
Na(lp960
(lp961
VtranslateX
p962
a(lp963
(lp964
F0
aF0
a(lp965
Vauto
p966
aVauto
p967
aF0
aF0
aF1
aF1
aaa(lp968
F15
aF0
a(lp969
Vauto
p970
aVauto
p971
aF0
aF0
aF1
aF1
aaa(lp972
F30
aF0
a(lp973
Vauto
p974
aVauto
p975
aF0
aF0
aF1
aF1
aaaaa(lp976
VtranslateY
p977
a(lp978
(lp979
F0
aF0
a(lp980
Vauto
p981
aVauto
p982
aF0
aF0
aF1
aF1
aaa(lp983
F15
aF0
a(lp984
Vauto
p985
aVauto
p986
aF0
aF0
aF1
aF1
aaa(lp987
F30
aF0
a(lp988
Vauto
p989
aVauto
p990
aF0
aF0
aF1
aF1
aaaaa(lp991
VtranslateZ
p992
a(lp993
(lp994
F0
aF-6.3108872417680944e-30
a(lp995
Vauto
p996
aVauto
p997
aF0
aF0
aF1
aF1
aaa(lp998
F15
aF-6.3108872417680944e-30
a(lp999
Vauto
p1000
aVauto
p1001
aF0
aF0
aF1
aF1
aaa(lp1002
F30
aF-6.3108872417680944e-30
a(lp1003
Vauto
p1004
aVauto
p1005
aF0
aF0
aF1
aF1
aaaaa(lp1006
VrotateX
p1007
a(lp1008
(lp1009
F0
aF3.7272125173400562e-17
a(lp1010
Vauto
p1011
aVauto
p1012
aF0
aF0
aF1
aF1
aaa(lp1013
F15
aF3.7272125173400562e-17
a(lp1014
Vauto
p1015
aVauto
p1016
aF0
aF0
aF1
aF1
aaa(lp1017
F30
aF3.7272125173400562e-17
a(lp1018
Vauto
p1019
aVauto
p1020
aF0
aF0
aF1
aF1
aaaaa(lp1021
VrotateY
p1022
a(lp1023
(lp1024
F0
aF-2.5444437451708134e-14
a(lp1025
Vauto
p1026
aVauto
p1027
aF0
aF0
aF1
aF1
aaa(lp1028
F15
aF-2.5444437451708134e-14
a(lp1029
Vauto
p1030
aVauto
p1031
aF0
aF0
aF1
aF1
aaa(lp1032
F30
aF-2.5444437451708134e-14
a(lp1033
Vauto
p1034
aVauto
p1035
aF0
aF0
aF1
aF1
aaaaa(lp1036
VrotateZ
p1037
a(lp1038
(lp1039
F0
aF4.9696166897867437e-17
a(lp1040
Vauto
p1041
aVauto
p1042
aF0
aF0
aF1
aF1
aaa(lp1043
F15
aF4.9696166897867437e-17
a(lp1044
Vauto
p1045
aVauto
p1046
aF0
aF0
aF1
aF1
aaa(lp1047
F30
aF4.9696166897867437e-17
a(lp1048
Vauto
p1049
aVauto
p1050
aF0
aF0
aF1
aF1
aaaaa(lp1051
VlTwistCtrlVis
p1052
a(lp1053
(lp1054
F0
aF0
a(lp1055
Vspline
p1056
aVstep
p1057
aF0
aF0
aF1
aF0
aaa(lp1058
F15
aF0
a(lp1059
Vspline
p1060
aVstep
p1061
aF0
aF0
aF1
aF0
aaa(lp1062
F30
aF0
a(lp1063
Vspline
p1064
aVstep
p1065
aF0
aF0
aF1
aF0
aaaaa(lp1066
VlCalfTwistCtrlVis
p1067
a(lp1068
(lp1069
F0
aF0
a(lp1070
Vspline
p1071
aVstep
p1072
aF0
aF0
aF1
aF0
aaa(lp1073
F15
aF0
a(lp1074
Vspline
p1075
aVstep
p1076
aF0
aF0
aF1
aF0
aaa(lp1077
F30
aF0
a(lp1078
Vspline
p1079
aVstep
p1080
aF0
aF0
aF1
aF0
aaaaa(lp1081
VrTwistCtrlVis
p1082
a(lp1083
(lp1084
F0
aF0
a(lp1085
Vspline
p1086
aVstep
p1087
aF0
aF0
aF1
aF0
aaa(lp1088
F15
aF0
a(lp1089
Vspline
p1090
aVstep
p1091
aF0
aF0
aF1
aF0
aaa(lp1092
F30
aF0
a(lp1093
Vspline
p1094
aVstep
p1095
aF0
aF0
aF1
aF0
aaaaa(lp1096
VrCalfTwistCtrlVis
p1097
a(lp1098
(lp1099
F0
aF0
a(lp1100
Vspline
p1101
aVstep
p1102
aF0
aF0
aF1
aF0
aaa(lp1103
F15
aF0
a(lp1104
Vspline
p1105
aVstep
p1106
aF0
aF0
aF1
aF0
aaa(lp1107
F30
aF0
a(lp1108
Vspline
p1109
aVstep
p1110
aF0
aF0
aF1
aF0
aaaaa(lp1111
VautoHips
p1112
a(lp1113
(lp1114
F0
aF0
a(lp1115
Vauto
p1116
aVauto
p1117
aF0
aF0
aF1
aF1
aaa(lp1118
F15
aF0
a(lp1119
Vauto
p1120
aVauto
p1121
aF0
aF0
aF1
aF1
aaa(lp1122
F30
aF0
a(lp1123
Vauto
p1124
aVauto
p1125
aF0
aF0
aF1
aF1
aaaaaaaaa(lp1126
S'clavicle_l_anim'
p1127
a(lp1128
(lp1129
Na(lp1130
(lp1131
VtranslateX
p1132
a(lp1133
(lp1134
F0
aF0
a(lp1135
Vauto
p1136
aVauto
p1137
aF0
aF0
aF1
aF1
aaa(lp1138
F15
aF0
a(lp1139
Vauto
p1140
aVauto
p1141
aF0
aF0
aF1
aF1
aaa(lp1142
F30
aF0
a(lp1143
Vauto
p1144
aVauto
p1145
aF0
aF0
aF1
aF1
aaaaa(lp1146
VtranslateY
p1147
a(lp1148
(lp1149
F0
aF0
a(lp1150
Vauto
p1151
aVauto
p1152
aF0
aF0
aF1
aF1
aaa(lp1153
F15
aF0
a(lp1154
Vauto
p1155
aVauto
p1156
aF0
aF0
aF1
aF1
aaa(lp1157
F30
aF0
a(lp1158
Vauto
p1159
aVauto
p1160
aF0
aF0
aF1
aF1
aaaaa(lp1161
VtranslateZ
p1162
a(lp1163
(lp1164
F0
aF0
a(lp1165
Vauto
p1166
aVauto
p1167
aF0
aF0
aF1
aF1
aaa(lp1168
F15
aF0
a(lp1169
Vauto
p1170
aVauto
p1171
aF0
aF0
aF1
aF1
aaa(lp1172
F30
aF0
a(lp1173
Vauto
p1174
aVauto
p1175
aF0
aF0
aF1
aF1
aaaaa(lp1176
VautoShoulders
p1177
a(lp1178
(lp1179
F0
aF0
a(lp1180
Vauto
p1181
aVauto
p1182
aF0
aF0
aF1
aF1
aaa(lp1183
F15
aF0
a(lp1184
Vauto
p1185
aVauto
p1186
aF0
aF0
aF1
aF1
aaa(lp1187
F30
aF0
a(lp1188
Vauto
p1189
aVauto
p1190
aF0
aF0
aF1
aF1
aaaaaaaaa(lp1191
S'clavicle_r_anim'
p1192
a(lp1193
(lp1194
Na(lp1195
(lp1196
VtranslateX
p1197
a(lp1198
(lp1199
F0
aF0
a(lp1200
Vauto
p1201
aVauto
p1202
aF0
aF0
aF1
aF1
aaa(lp1203
F15
aF0
a(lp1204
Vauto
p1205
aVauto
p1206
aF0
aF0
aF1
aF1
aaa(lp1207
F30
aF0
a(lp1208
Vauto
p1209
aVauto
p1210
aF0
aF0
aF1
aF1
aaaaa(lp1211
VtranslateY
p1212
a(lp1213
(lp1214
F0
aF0
a(lp1215
Vauto
p1216
aVauto
p1217
aF0
aF0
aF1
aF1
aaa(lp1218
F15
aF0
a(lp1219
Vauto
p1220
aVauto
p1221
aF0
aF0
aF1
aF1
aaa(lp1222
F30
aF0
a(lp1223
Vauto
p1224
aVauto
p1225
aF0
aF0
aF1
aF1
aaaaa(lp1226
VtranslateZ
p1227
a(lp1228
(lp1229
F0
aF0
a(lp1230
Vauto
p1231
aVauto
p1232
aF0
aF0
aF1
aF1
aaa(lp1233
F15
aF0
a(lp1234
Vauto
p1235
aVauto
p1236
aF0
aF0
aF1
aF1
aaa(lp1237
F30
aF0
a(lp1238
Vauto
p1239
aVauto
p1240
aF0
aF0
aF1
aF1
aaaaa(lp1241
VautoShoulders
p1242
a(lp1243
(lp1244
F0
aF0
a(lp1245
Vauto
p1246
aVauto
p1247
aF0
aF0
aF1
aF1
aaa(lp1248
F15
aF0
a(lp1249
Vauto
p1250
aVauto
p1251
aF0
aF0
aF1
aF1
aaa(lp1252
F30
aF0
a(lp1253
Vauto
p1254
aVauto
p1255
aF0
aF0
aF1
aF1
aaaaaaaaa(lp1256
S'fk_arm_l_anim'
p1257
a(lp1258
(lp1259
Na(lp1260
(lp1261
VtranslateX
p1262
a(lp1263
(lp1264
F0
aF0
a(lp1265
Vauto
p1266
aVauto
p1267
aF0
aF0
aF0
aF0
aaaaa(lp1268
VtranslateY
p1269
a(lp1270
(lp1271
F0
aF0
a(lp1272
Vauto
p1273
aVauto
p1274
aF0
aF0
aF0
aF0
aaaaa(lp1275
VtranslateZ
p1276
a(lp1277
(lp1278
F0
aF0
a(lp1279
Vauto
p1280
aVauto
p1281
aF0
aF0
aF0
aF0
aaaaa(lp1282
VrotateX
p1283
a(lp1284
(lp1285
F0
aF0
a(lp1286
Vauto
p1287
aVauto
p1288
aF0
aF0
aF0
aF0
aaaaa(lp1289
VrotateY
p1290
a(lp1291
(lp1292
F0
aF0
a(lp1293
Vauto
p1294
aVauto
p1295
aF0
aF0
aF0
aF0
aaaaa(lp1296
VrotateZ
p1297
a(lp1298
(lp1299
F0
aF0
a(lp1300
Vauto
p1301
aVauto
p1302
aF0
aF0
aF0
aF0
aaaaaaaaa(lp1303
S'fk_arm_r_anim'
p1304
a(lp1305
(lp1306
Na(lp1307
(lp1308
VtranslateX
p1309
a(lp1310
(lp1311
F0
aF0
a(lp1312
Vauto
p1313
aVauto
p1314
aF0
aF0
aF0
aF0
aaaaa(lp1315
VtranslateY
p1316
a(lp1317
(lp1318
F0
aF0
a(lp1319
Vauto
p1320
aVauto
p1321
aF0
aF0
aF0
aF0
aaaaa(lp1322
VtranslateZ
p1323
a(lp1324
(lp1325
F0
aF0
a(lp1326
Vauto
p1327
aVauto
p1328
aF0
aF0
aF0
aF0
aaaaa(lp1329
VrotateX
p1330
a(lp1331
(lp1332
F0
aF0
a(lp1333
Vauto
p1334
aVauto
p1335
aF0
aF0
aF0
aF0
aaaaa(lp1336
VrotateY
p1337
a(lp1338
(lp1339
F0
aF0
a(lp1340
Vauto
p1341
aVauto
p1342
aF0
aF0
aF0
aF0
aaaaa(lp1343
VrotateZ
p1344
a(lp1345
(lp1346
F0
aF0
a(lp1347
Vauto
p1348
aVauto
p1349
aF0
aF0
aF0
aF0
aaaaaaaaa(lp1350
S'fk_elbow_l_anim'
p1351
a(lp1352
(lp1353
Na(lp1354
(lp1355
VtranslateX
p1356
a(lp1357
(lp1358
F0
aF0
a(lp1359
Vauto
p1360
aVauto
p1361
aF0
aF0
aF0
aF0
aaaaa(lp1362
VtranslateY
p1363
a(lp1364
(lp1365
F0
aF0
a(lp1366
Vauto
p1367
aVauto
p1368
aF0
aF0
aF0
aF0
aaaaa(lp1369
VtranslateZ
p1370
a(lp1371
(lp1372
F0
aF0
a(lp1373
Vauto
p1374
aVauto
p1375
aF0
aF0
aF0
aF0
aaaaa(lp1376
VrotateX
p1377
a(lp1378
(lp1379
F0
aF0
a(lp1380
Vauto
p1381
aVauto
p1382
aF0
aF0
aF0
aF0
aaaaa(lp1383
VrotateY
p1384
a(lp1385
(lp1386
F0
aF0
a(lp1387
Vauto
p1388
aVauto
p1389
aF0
aF0
aF0
aF0
aaaaa(lp1390
VrotateZ
p1391
a(lp1392
(lp1393
F0
aF0
a(lp1394
Vauto
p1395
aVauto
p1396
aF0
aF0
aF0
aF0
aaaaaaaaa(lp1397
S'fk_elbow_r_anim'
p1398
a(lp1399
(lp1400
Na(lp1401
(lp1402
VtranslateX
p1403
a(lp1404
(lp1405
F0
aF0
a(lp1406
Vauto
p1407
aVauto
p1408
aF0
aF0
aF0
aF0
aaaaa(lp1409
VtranslateY
p1410
a(lp1411
(lp1412
F0
aF0
a(lp1413
Vauto
p1414
aVauto
p1415
aF0
aF0
aF0
aF0
aaaaa(lp1416
VtranslateZ
p1417
a(lp1418
(lp1419
F0
aF0
a(lp1420
Vauto
p1421
aVauto
p1422
aF0
aF0
aF0
aF0
aaaaa(lp1423
VrotateX
p1424
a(lp1425
(lp1426
F0
aF0
a(lp1427
Vauto
p1428
aVauto
p1429
aF0
aF0
aF0
aF0
aaaaa(lp1430
VrotateY
p1431
a(lp1432
(lp1433
F0
aF0
a(lp1434
Vauto
p1435
aVauto
p1436
aF0
aF0
aF0
aF0
aaaaa(lp1437
VrotateZ
p1438
a(lp1439
(lp1440
F0
aF0
a(lp1441
Vauto
p1442
aVauto
p1443
aF0
aF0
aF0
aF0
aaaaaaaaa(lp1444
S'fk_wrist_l_anim'
p1445
a(lp1446
(lp1447
Na(lp1448
(lp1449
VtranslateX
p1450
a(lp1451
(lp1452
F0
aF0
a(lp1453
Vauto
p1454
aVauto
p1455
aF0
aF0
aF0
aF0
aaaaa(lp1456
VtranslateY
p1457
a(lp1458
(lp1459
F0
aF0
a(lp1460
Vauto
p1461
aVauto
p1462
aF0
aF0
aF0
aF0
aaaaa(lp1463
VtranslateZ
p1464
a(lp1465
(lp1466
F0
aF0
a(lp1467
Vauto
p1468
aVauto
p1469
aF0
aF0
aF0
aF0
aaaaa(lp1470
VrotateX
p1471
a(lp1472
(lp1473
F0
aF0
a(lp1474
Vauto
p1475
aVauto
p1476
aF0
aF0
aF0
aF0
aaaaa(lp1477
VrotateY
p1478
a(lp1479
(lp1480
F0
aF0
a(lp1481
Vauto
p1482
aVauto
p1483
aF0
aF0
aF0
aF0
aaaaa(lp1484
VrotateZ
p1485
a(lp1486
(lp1487
F0
aF0
a(lp1488
Vauto
p1489
aVauto
p1490
aF0
aF0
aF0
aF0
aaaaaaaaa(lp1491
S'fk_wrist_r_anim'
p1492
a(lp1493
(lp1494
Na(lp1495
(lp1496
VtranslateX
p1497
a(lp1498
(lp1499
F0
aF0
a(lp1500
Vauto
p1501
aVauto
p1502
aF0
aF0
aF0
aF0
aaaaa(lp1503
VtranslateY
p1504
a(lp1505
(lp1506
F0
aF0
a(lp1507
Vauto
p1508
aVauto
p1509
aF0
aF0
aF0
aF0
aaaaa(lp1510
VtranslateZ
p1511
a(lp1512
(lp1513
F0
aF0
a(lp1514
Vauto
p1515
aVauto
p1516
aF0
aF0
aF0
aF0
aaaaa(lp1517
VrotateX
p1518
a(lp1519
(lp1520
F0
aF0
a(lp1521
Vauto
p1522
aVauto
p1523
aF0
aF0
aF0
aF0
aaaaa(lp1524
VrotateY
p1525
a(lp1526
(lp1527
F0
aF0
a(lp1528
Vauto
p1529
aVauto
p1530
aF0
aF0
aF0
aF0
aaaaa(lp1531
VrotateZ
p1532
a(lp1533
(lp1534
F0
aF0
a(lp1535
Vauto
p1536
aVauto
p1537
aF0
aF0
aF0
aF0
aaaaaaaaa(lp1538
S'ik_elbow_l_anim'
p1539
a(lp1540
(lp1541
Na(lp1542
(lp1543
VtranslateX
p1544
a(lp1545
(lp1546
F0
aF-23.234471546164677
a(lp1547
Vauto
p1548
aVauto
p1549
aF0
aF0
aF1
aF1
aaa(lp1550
F15
aF-23.234471546164677
a(lp1551
Vauto
p1552
aVauto
p1553
aF0
aF0
aF1
aF1
aaa(lp1554
F30
aF-23.234471546164677
a(lp1555
Vauto
p1556
aVauto
p1557
aF0
aF0
aF1
aF1
aaaaa(lp1558
VtranslateY
p1559
a(lp1560
(lp1561
F0
aF-3.5527136788005009e-15
a(lp1562
Vauto
p1563
aVauto
p1564
aF0
aF0
aF1
aF1
aaa(lp1565
F15
aF-3.5527136788005009e-15
a(lp1566
Vauto
p1567
aVauto
p1568
aF0
aF0
aF1
aF1
aaa(lp1569
F30
aF-3.5527136788005009e-15
a(lp1570
Vauto
p1571
aVauto
p1572
aF0
aF0
aF1
aF1
aaaaa(lp1573
VtranslateZ
p1574
a(lp1575
(lp1576
F0
aF0
a(lp1577
Vauto
p1578
aVauto
p1579
aF0
aF0
aF1
aF1
aaa(lp1580
F15
aF0
a(lp1581
Vauto
p1582
aVauto
p1583
aF0
aF0
aF1
aF1
aaa(lp1584
F30
aF0
a(lp1585
Vauto
p1586
aVauto
p1587
aF0
aF0
aF1
aF1
aaaaaaaaa(lp1588
S'ik_elbow_r_anim'
p1589
a(lp1590
(lp1591
Na(lp1592
(lp1593
VtranslateX
p1594
a(lp1595
(lp1596
F0
aF23.234471546164677
a(lp1597
Vauto
p1598
aVauto
p1599
aF0
aF0
aF1
aF1
aaa(lp1600
F15
aF23.234471546164677
a(lp1601
Vauto
p1602
aVauto
p1603
aF0
aF0
aF1
aF1
aaa(lp1604
F30
aF23.234471546164677
a(lp1605
Vauto
p1606
aVauto
p1607
aF0
aF0
aF1
aF1
aaaaa(lp1608
VtranslateY
p1609
a(lp1610
(lp1611
F0
aF-3.5527136788005009e-15
a(lp1612
Vauto
p1613
aVauto
p1614
aF0
aF0
aF1
aF1
aaa(lp1615
F15
aF-3.5527136788005009e-15
a(lp1616
Vauto
p1617
aVauto
p1618
aF0
aF0
aF1
aF1
aaa(lp1619
F30
aF-3.5527136788005009e-15
a(lp1620
Vauto
p1621
aVauto
p1622
aF0
aF0
aF1
aF1
aaaaa(lp1623
VtranslateZ
p1624
a(lp1625
(lp1626
F0
aF0
a(lp1627
Vauto
p1628
aVauto
p1629
aF0
aF0
aF1
aF1
aaa(lp1630
F15
aF0
a(lp1631
Vauto
p1632
aVauto
p1633
aF0
aF0
aF1
aF1
aaa(lp1634
F30
aF0
a(lp1635
Vauto
p1636
aVauto
p1637
aF0
aF0
aF1
aF1
aaaaaaaaa(lp1638
S'ik_wrist_l_anim'
p1639
a(lp1640
(lp1641
Na(lp1642
(lp1643
VtranslateX
p1644
a(lp1645
(lp1646
F0
aF-44.827348975238465
a(lp1647
Vauto
p1648
aVauto
p1649
aF0
aF0
aF1
aF1
aaa(lp1650
F15
aF-44.827348975238465
a(lp1651
Vauto
p1652
aVauto
p1653
aF0
aF0
aF1
aF1
aaa(lp1654
F30
aF-44.827348975238465
a(lp1655
Vauto
p1656
aVauto
p1657
aF0
aF0
aF1
aF1
aaaaa(lp1658
VtranslateY
p1659
a(lp1660
(lp1661
F0
aF-32.164306574045241
a(lp1662
Vauto
p1663
aVauto
p1664
aF0
aF0
aF1
aF1
aaa(lp1665
F15
aF-32.164306574045241
a(lp1666
Vauto
p1667
aVauto
p1668
aF0
aF0
aF1
aF1
aaa(lp1669
F30
aF-32.164306574045241
a(lp1670
Vauto
p1671
aVauto
p1672
aF0
aF0
aF1
aF1
aaaaa(lp1673
VtranslateZ
p1674
a(lp1675
(lp1676
F0
aF-26.550457913571677
a(lp1677
Vauto
p1678
aVauto
p1679
aF0
aF0
aF1
aF1
aaa(lp1680
F15
aF-26.550457913571677
a(lp1681
Vauto
p1682
aVauto
p1683
aF0
aF0
aF1
aF1
aaa(lp1684
F30
aF-26.550457913571677
a(lp1685
Vauto
p1686
aVauto
p1687
aF0
aF0
aF1
aF1
aaaaa(lp1688
VrotateX
p1689
a(lp1690
(lp1691
F0
aF-79.802349922544124
a(lp1692
Vauto
p1693
aVauto
p1694
aF0
aF0
aF1
aF1
aaa(lp1695
F15
aF-79.802349922544124
a(lp1696
Vauto
p1697
aVauto
p1698
aF0
aF0
aF1
aF1
aaa(lp1699
F30
aF-79.802349922544124
a(lp1700
Vauto
p1701
aVauto
p1702
aF0
aF0
aF1
aF1
aaaaa(lp1703
VrotateY
p1704
a(lp1705
(lp1706
F0
aF5.7205419641698469
a(lp1707
Vauto
p1708
aVauto
p1709
aF0
aF0
aF1
aF1
aaa(lp1710
F15
aF5.7205419641698469
a(lp1711
Vauto
p1712
aVauto
p1713
aF0
aF0
aF1
aF1
aaa(lp1714
F30
aF5.7205419641698469
a(lp1715
Vauto
p1716
aVauto
p1717
aF0
aF0
aF1
aF1
aaaaa(lp1718
VrotateZ
p1719
a(lp1720
(lp1721
F0
aF-88.972773150815655
a(lp1722
Vauto
p1723
aVauto
p1724
aF0
aF0
aF1
aF1
aaa(lp1725
F15
aF-88.972773150815655
a(lp1726
Vauto
p1727
aVauto
p1728
aF0
aF0
aF1
aF1
aaa(lp1729
F30
aF-88.972773150815655
a(lp1730
Vauto
p1731
aVauto
p1732
aF0
aF0
aF1
aF1
aaaaa(lp1733
Vstretch
p1734
a(lp1735
(lp1736
F0
aF0
a(lp1737
Vauto
p1738
aVauto
p1739
aF0
aF0
aF1
aF1
aaa(lp1740
F15
aF0
a(lp1741
Vauto
p1742
aVauto
p1743
aF0
aF0
aF1
aF1
aaa(lp1744
F30
aF0
a(lp1745
Vauto
p1746
aVauto
p1747
aF0
aF0
aF1
aF1
aaaaa(lp1748
Vsquash
p1749
a(lp1750
(lp1751
F0
aF0
a(lp1752
Vauto
p1753
aVauto
p1754
aF0
aF0
aF1
aF1
aaa(lp1755
F15
aF0
a(lp1756
Vauto
p1757
aVauto
p1758
aF0
aF0
aF1
aF1
aaa(lp1759
F30
aF0
a(lp1760
Vauto
p1761
aVauto
p1762
aF0
aF0
aF1
aF1
aaaaa(lp1763
Vside
p1764
a(lp1765
(lp1766
F0
aF0
a(lp1767
Vauto
p1768
aVauto
p1769
aF0
aF0
aF1
aF1
aaa(lp1770
F15
aF0
a(lp1771
Vauto
p1772
aVauto
p1773
aF0
aF0
aF1
aF1
aaa(lp1774
F30
aF0
a(lp1775
Vauto
p1776
aVauto
p1777
aF0
aF0
aF1
aF1
aaaaa(lp1778
Vmid_bend
p1779
a(lp1780
(lp1781
F0
aF0
a(lp1782
Vauto
p1783
aVauto
p1784
aF0
aF0
aF1
aF1
aaa(lp1785
F15
aF0
a(lp1786
Vauto
p1787
aVauto
p1788
aF0
aF0
aF1
aF1
aaa(lp1789
F30
aF0
a(lp1790
Vauto
p1791
aVauto
p1792
aF0
aF0
aF1
aF1
aaaaa(lp1793
Vmid_swivel
p1794
a(lp1795
(lp1796
F0
aF0
a(lp1797
Vauto
p1798
aVauto
p1799
aF0
aF0
aF1
aF1
aaa(lp1800
F15
aF0
a(lp1801
Vauto
p1802
aVauto
p1803
aF0
aF0
aF1
aF1
aaa(lp1804
F30
aF0
a(lp1805
Vauto
p1806
aVauto
p1807
aF0
aF0
aF1
aF1
aaaaa(lp1808
Vtip_pivot
p1809
a(lp1810
(lp1811
F0
aF0
a(lp1812
Vauto
p1813
aVauto
p1814
aF0
aF0
aF1
aF1
aaa(lp1815
F15
aF0
a(lp1816
Vauto
p1817
aVauto
p1818
aF0
aF0
aF1
aF1
aaa(lp1819
F30
aF0
a(lp1820
Vauto
p1821
aVauto
p1822
aF0
aF0
aF1
aF1
aaaaa(lp1823
Vtip_swivel
p1824
a(lp1825
(lp1826
F0
aF0
a(lp1827
Vauto
p1828
aVauto
p1829
aF0
aF0
aF1
aF1
aaa(lp1830
F15
aF0
a(lp1831
Vauto
p1832
aVauto
p1833
aF0
aF0
aF1
aF1
aaa(lp1834
F30
aF0
a(lp1835
Vauto
p1836
aVauto
p1837
aF0
aF0
aF1
aF1
aaaaaaaaa(lp1838
S'ik_wrist_r_anim'
p1839
a(lp1840
(lp1841
Na(lp1842
(lp1843
VtranslateX
p1844
a(lp1845
(lp1846
F0
aF44.827348975238465
a(lp1847
Vauto
p1848
aVauto
p1849
aF0
aF0
aF1
aF1
aaa(lp1850
F15
aF44.827348975238465
a(lp1851
Vauto
p1852
aVauto
p1853
aF0
aF0
aF1
aF1
aaa(lp1854
F30
aF44.827348975238465
a(lp1855
Vauto
p1856
aVauto
p1857
aF0
aF0
aF1
aF1
aaaaa(lp1858
VtranslateY
p1859
a(lp1860
(lp1861
F0
aF-3.3990082825809118
a(lp1862
Vauto
p1863
aVauto
p1864
aF0
aF0
aF1
aF1
aaa(lp1865
F15
aF-3.3990082825809118
a(lp1866
Vauto
p1867
aVauto
p1868
aF0
aF0
aF1
aF1
aaa(lp1869
F30
aF-3.3990082825809118
a(lp1870
Vauto
p1871
aVauto
p1872
aF0
aF0
aF1
aF1
aaaaa(lp1873
VtranslateZ
p1874
a(lp1875
(lp1876
F0
aF-52.133751685034497
a(lp1877
Vauto
p1878
aVauto
p1879
aF0
aF0
aF1
aF1
aaa(lp1880
F15
aF-52.133751685034497
a(lp1881
Vauto
p1882
aVauto
p1883
aF0
aF0
aF1
aF1
aaa(lp1884
F30
aF-52.133751685034497
a(lp1885
Vauto
p1886
aVauto
p1887
aF0
aF0
aF1
aF1
aaaaa(lp1888
VrotateX
p1889
a(lp1890
(lp1891
F0
aF0
a(lp1892
Vauto
p1893
aVauto
p1894
aF0
aF0
aF1
aF1
aaa(lp1895
F15
aF0
a(lp1896
Vauto
p1897
aVauto
p1898
aF0
aF0
aF1
aF1
aaa(lp1899
F30
aF0
a(lp1900
Vauto
p1901
aVauto
p1902
aF0
aF0
aF1
aF1
aaaaa(lp1903
VrotateY
p1904
a(lp1905
(lp1906
F0
aF-79.853674276985402
a(lp1907
Vauto
p1908
aVauto
p1909
aF0
aF0
aF1
aF1
aaa(lp1910
F15
aF-79.853674276985402
a(lp1911
Vauto
p1912
aVauto
p1913
aF0
aF0
aF1
aF1
aaa(lp1914
F30
aF-79.853674276985402
a(lp1915
Vauto
p1916
aVauto
p1917
aF0
aF0
aF1
aF1
aaaaa(lp1918
VrotateZ
p1919
a(lp1920
(lp1921
F0
aF-0
a(lp1922
Vauto
p1923
aVauto
p1924
aF0
aF0
aF1
aF1
aaa(lp1925
F15
aF-0
a(lp1926
Vauto
p1927
aVauto
p1928
aF0
aF0
aF1
aF1
aaa(lp1929
F30
aF-0
a(lp1930
Vauto
p1931
aVauto
p1932
aF0
aF0
aF1
aF1
aaaaa(lp1933
Vstretch
p1934
a(lp1935
(lp1936
F0
aF0
a(lp1937
Vauto
p1938
aVauto
p1939
aF0
aF0
aF1
aF1
aaa(lp1940
F15
aF0
a(lp1941
Vauto
p1942
aVauto
p1943
aF0
aF0
aF1
aF1
aaa(lp1944
F30
aF0
a(lp1945
Vauto
p1946
aVauto
p1947
aF0
aF0
aF1
aF1
aaaaa(lp1948
Vsquash
p1949
a(lp1950
(lp1951
F0
aF0
a(lp1952
Vauto
p1953
aVauto
p1954
aF0
aF0
aF1
aF1
aaa(lp1955
F15
aF0
a(lp1956
Vauto
p1957
aVauto
p1958
aF0
aF0
aF1
aF1
aaa(lp1959
F30
aF0
a(lp1960
Vauto
p1961
aVauto
p1962
aF0
aF0
aF1
aF1
aaaaa(lp1963
Vside
p1964
a(lp1965
(lp1966
F0
aF0
a(lp1967
Vauto
p1968
aVauto
p1969
aF0
aF0
aF1
aF1
aaa(lp1970
F15
aF0
a(lp1971
Vauto
p1972
aVauto
p1973
aF0
aF0
aF1
aF1
aaa(lp1974
F30
aF0
a(lp1975
Vauto
p1976
aVauto
p1977
aF0
aF0
aF1
aF1
aaaaa(lp1978
Vmid_bend
p1979
a(lp1980
(lp1981
F0
aF0
a(lp1982
Vauto
p1983
aVauto
p1984
aF0
aF0
aF1
aF1
aaa(lp1985
F15
aF0
a(lp1986
Vauto
p1987
aVauto
p1988
aF0
aF0
aF1
aF1
aaa(lp1989
F30
aF0
a(lp1990
Vauto
p1991
aVauto
p1992
aF0
aF0
aF1
aF1
aaaaa(lp1993
Vmid_swivel
p1994
a(lp1995
(lp1996
F0
aF0
a(lp1997
Vauto
p1998
aVauto
p1999
aF0
aF0
aF1
aF1
aaa(lp2000
F15
aF0
a(lp2001
Vauto
p2002
aVauto
p2003
aF0
aF0
aF1
aF1
aaa(lp2004
F30
aF0
a(lp2005
Vauto
p2006
aVauto
p2007
aF0
aF0
aF1
aF1
aaaaa(lp2008
Vtip_pivot
p2009
a(lp2010
(lp2011
F0
aF0
a(lp2012
Vauto
p2013
aVauto
p2014
aF0
aF0
aF1
aF1
aaa(lp2015
F15
aF0
a(lp2016
Vauto
p2017
aVauto
p2018
aF0
aF0
aF1
aF1
aaa(lp2019
F30
aF0
a(lp2020
Vauto
p2021
aVauto
p2022
aF0
aF0
aF1
aF1
aaaaa(lp2023
Vtip_swivel
p2024
a(lp2025
(lp2026
F0
aF0
a(lp2027
Vauto
p2028
aVauto
p2029
aF0
aF0
aF1
aF1
aaa(lp2030
F15
aF0
a(lp2031
Vauto
p2032
aVauto
p2033
aF0
aF0
aF1
aF1
aaa(lp2034
F30
aF0
a(lp2035
Vauto
p2036
aVauto
p2037
aF0
aF0
aF1
aF1
aaaaaaaaa(lp2038
S'fk_thigh_l_anim'
p2039
a(lp2040
(lp2041
Na(lp2042
(lp2043
VrotateX
p2044
a(lp2045
(lp2046
F0
aF-2.8207063870240999e-16
a(lp2047
Vauto
p2048
aVauto
p2049
aF0
aF0
aF0
aF0
aaaaa(lp2050
VrotateY
p2051
a(lp2052
(lp2053
F0
aF1.5530052155583578e-18
a(lp2054
Vauto
p2055
aVauto
p2056
aF0
aF0
aF0
aF0
aaaaa(lp2057
VrotateZ
p2058
a(lp2059
(lp2060
F0
aF2.4848083448933725e-17
a(lp2061
Vauto
p2062
aVauto
p2063
aF0
aF0
aF0
aF0
aaaaaaaaa(lp2064
S'fk_thigh_r_anim'
p2065
a(lp2066
(lp2067
Na(lp2068
(lp2069
VrotateX
p2070
a(lp2071
(lp2072
F0
aF-5.8618667175380076e-16
a(lp2073
Vauto
p2074
aVauto
p2075
aF0
aF0
aF0
aF0
aaaaa(lp2076
VrotateY
p2077
a(lp2078
(lp2079
F0
aF-0
a(lp2080
Vauto
p2081
aVauto
p2082
aF0
aF0
aF0
aF0
aaaaa(lp2083
VrotateZ
p2084
a(lp2085
(lp2086
F0
aF2.4848083448933731e-17
a(lp2087
Vauto
p2088
aVauto
p2089
aF0
aF0
aF0
aF0
aaaaaaaaa(lp2090
S'fk_calf_l_anim'
p2091
a(lp2092
(lp2093
Na(lp2094
(lp2095
VrotateX
p2096
a(lp2097
(lp2098
F0
aF0
a(lp2099
Vauto
p2100
aVauto
p2101
aF0
aF0
aF0
aF0
aaaaa(lp2102
VrotateY
p2103
a(lp2104
(lp2105
F0
aF0
a(lp2106
Vauto
p2107
aVauto
p2108
aF0
aF0
aF0
aF0
aaaaa(lp2109
VrotateZ
p2110
a(lp2111
(lp2112
F0
aF0
a(lp2113
Vauto
p2114
aVauto
p2115
aF0
aF0
aF0
aF0
aaaaaaaaa(lp2116
S'fk_calf_r_anim'
p2117
a(lp2118
(lp2119
Na(lp2120
(lp2121
VrotateX
p2122
a(lp2123
(lp2124
F0
aF0
a(lp2125
Vauto
p2126
aVauto
p2127
aF0
aF0
aF0
aF0
aaaaa(lp2128
VrotateY
p2129
a(lp2130
(lp2131
F0
aF0
a(lp2132
Vauto
p2133
aVauto
p2134
aF0
aF0
aF0
aF0
aaaaa(lp2135
VrotateZ
p2136
a(lp2137
(lp2138
F0
aF0
a(lp2139
Vauto
p2140
aVauto
p2141
aF0
aF0
aF0
aF0
aaaaaaaaa(lp2142
S'fk_foot_l_anim'
p2143
a(lp2144
(lp2145
Na(lp2146
(lp2147
VrotateX
p2148
a(lp2149
(lp2150
F0
aF0
a(lp2151
Vauto
p2152
aVauto
p2153
aF0
aF0
aF0
aF0
aaaaa(lp2154
VrotateY
p2155
a(lp2156
(lp2157
F0
aF0
a(lp2158
Vauto
p2159
aVauto
p2160
aF0
aF0
aF0
aF0
aaaaa(lp2161
VrotateZ
p2162
a(lp2163
(lp2164
F0
aF0
a(lp2165
Vauto
p2166
aVauto
p2167
aF0
aF0
aF0
aF0
aaaaaaaaa(lp2168
S'fk_foot_r_anim'
p2169
a(lp2170
(lp2171
Na(lp2172
(lp2173
VrotateX
p2174
a(lp2175
(lp2176
F0
aF-3.7635228676863548e-44
a(lp2177
Vauto
p2178
aVauto
p2179
aF0
aF0
aF0
aF0
aaaaa(lp2180
VrotateY
p2181
a(lp2182
(lp2183
F0
aF-0
a(lp2184
Vauto
p2185
aVauto
p2186
aF0
aF0
aF0
aF0
aaaaa(lp2187
VrotateZ
p2188
a(lp2189
(lp2190
F0
aF0
a(lp2191
Vauto
p2192
aVauto
p2193
aF0
aF0
aF0
aF0
aaaaaaaaa(lp2194
S'fk_ball_l_anim'
p2195
a(lp2196
(lp2197
Na(lp2198
(lp2199
VrotateX
p2200
a(lp2201
(lp2202
F0
aF1.1299600123008406e-29
a(lp2203
Vauto
p2204
aVauto
p2205
aF0
aF0
aF0
aF0
aaaaa(lp2206
VrotateY
p2207
a(lp2208
(lp2209
F0
aF-0
a(lp2210
Vauto
p2211
aVauto
p2212
aF0
aF0
aF0
aF0
aaaaa(lp2213
VrotateZ
p2214
a(lp2215
(lp2216
F0
aF0
a(lp2217
Vauto
p2218
aVauto
p2219
aF0
aF0
aF0
aF0
aaaaaaaaa(lp2220
S'fk_ball_r_anim'
p2221
a(lp2222
(lp2223
Na(lp2224
(lp2225
VrotateX
p2226
a(lp2227
(lp2228
F0
aF0
a(lp2229
Vauto
p2230
aVauto
p2231
aF0
aF0
aF0
aF0
aaaaa(lp2232
VrotateY
p2233
a(lp2234
(lp2235
F0
aF-2.6483437402281104e-30
a(lp2236
Vauto
p2237
aVauto
p2238
aF0
aF0
aF0
aF0
aaaaa(lp2239
VrotateZ
p2240
a(lp2241
(lp2242
F0
aF0
a(lp2243
Vauto
p2244
aVauto
p2245
aF0
aF0
aF0
aF0
aaaaaaaaa(lp2246
S'ik_foot_anim_l'
p2247
a(lp2248
(lp2249
Na(lp2250
(lp2251
VtranslateX
p2252
a(lp2253
(lp2254
F0
aF3.4670270854457668
a(lp2255
Vauto
p2256
aVauto
p2257
aF0
aF0
aF1
aF1
aaa(lp2258
F15
aF3.4670270854457668
a(lp2259
Vauto
p2260
aVauto
p2261
aF0
aF0
aF1
aF1
aaa(lp2262
F30
aF3.4670270854457668
a(lp2263
Vauto
p2264
aVauto
p2265
aF0
aF0
aF1
aF1
aaaaa(lp2266
VtranslateY
p2267
a(lp2268
(lp2269
F0
aF0
a(lp2270
Vauto
p2271
aVauto
p2272
aF0
aF0
aF1
aF1
aaa(lp2273
F15
aF0
a(lp2274
Vauto
p2275
aVauto
p2276
aF0
aF0
aF1
aF1
aaa(lp2277
F30
aF0
a(lp2278
Vauto
p2279
aVauto
p2280
aF0
aF0
aF1
aF1
aaaaa(lp2281
VtranslateZ
p2282
a(lp2283
(lp2284
F0
aF-1.7763568394002505e-15
a(lp2285
Vauto
p2286
aVauto
p2287
aF0
aF0
aF1
aF1
aaa(lp2288
F15
aF-1.7763568394002505e-15
a(lp2289
Vauto
p2290
aVauto
p2291
aF0
aF0
aF1
aF1
aaa(lp2292
F30
aF-1.7763568394002505e-15
a(lp2293
Vauto
p2294
aVauto
p2295
aF0
aF0
aF1
aF1
aaaaa(lp2296
VrotateX
p2297
a(lp2298
(lp2299
F0
aF0
a(lp2300
Vauto
p2301
aVauto
p2302
aF0
aF0
aF1
aF1
aaa(lp2303
F15
aF0
a(lp2304
Vauto
p2305
aVauto
p2306
aF0
aF0
aF1
aF1
aaa(lp2307
F30
aF0
a(lp2308
Vauto
p2309
aVauto
p2310
aF0
aF0
aF1
aF1
aaaaa(lp2311
VrotateY
p2312
a(lp2313
(lp2314
F0
aF0
a(lp2315
Vauto
p2316
aVauto
p2317
aF0
aF0
aF1
aF1
aaa(lp2318
F15
aF0
a(lp2319
Vauto
p2320
aVauto
p2321
aF0
aF0
aF1
aF1
aaa(lp2322
F30
aF0
a(lp2323
Vauto
p2324
aVauto
p2325
aF0
aF0
aF1
aF1
aaaaa(lp2326
VrotateZ
p2327
a(lp2328
(lp2329
F0
aF0
a(lp2330
Vauto
p2331
aVauto
p2332
aF0
aF0
aF1
aF1
aaa(lp2333
F15
aF0
a(lp2334
Vauto
p2335
aVauto
p2336
aF0
aF0
aF1
aF1
aaa(lp2337
F30
aF0
a(lp2338
Vauto
p2339
aVauto
p2340
aF0
aF0
aF1
aF1
aaaaa(lp2341
Vknee_twist
p2342
a(lp2343
(lp2344
F0
aF0
a(lp2345
Vauto
p2346
aVauto
p2347
aF0
aF0
aF1
aF1
aaa(lp2348
F15
aF0
a(lp2349
Vauto
p2350
aVauto
p2351
aF0
aF0
aF1
aF1
aaa(lp2352
F30
aF0
a(lp2353
Vauto
p2354
aVauto
p2355
aF0
aF0
aF1
aF1
aaaaa(lp2356
Vstretch
p2357
a(lp2358
(lp2359
F0
aF0
a(lp2360
Vauto
p2361
aVauto
p2362
aF0
aF0
aF1
aF1
aaa(lp2363
F15
aF0
a(lp2364
Vauto
p2365
aVauto
p2366
aF0
aF0
aF1
aF1
aaa(lp2367
F30
aF0
a(lp2368
Vauto
p2369
aVauto
p2370
aF0
aF0
aF1
aF1
aaaaa(lp2371
Vsquash
p2372
a(lp2373
(lp2374
F0
aF0
a(lp2375
Vauto
p2376
aVauto
p2377
aF0
aF0
aF1
aF1
aaa(lp2378
F15
aF0
a(lp2379
Vauto
p2380
aVauto
p2381
aF0
aF0
aF1
aF1
aaa(lp2382
F30
aF0
a(lp2383
Vauto
p2384
aVauto
p2385
aF0
aF0
aF1
aF1
aaaaa(lp2386
VtoeCtrlVis
p2387
a(lp2388
(lp2389
F0
aF0
a(lp2390
Vspline
p2391
aVstep
p2392
aF0
aF0
aF1
aF0
aaa(lp2393
F15
aF0
a(lp2394
Vspline
p2395
aVstep
p2396
aF0
aF0
aF1
aF0
aaa(lp2397
F30
aF0
a(lp2398
Vspline
p2399
aVstep
p2400
aF0
aF0
aF1
aF0
aaaaaaaaa(lp2401
S'ik_foot_anim_r'
p2402
a(lp2403
(lp2404
Na(lp2405
(lp2406
VtranslateX
p2407
a(lp2408
(lp2409
F0
aF-3.4670270854457668
a(lp2410
Vauto
p2411
aVauto
p2412
aF0
aF0
aF1
aF1
aaa(lp2413
F15
aF-3.4670270854457668
a(lp2414
Vauto
p2415
aVauto
p2416
aF0
aF0
aF1
aF1
aaa(lp2417
F30
aF-3.4670270854457668
a(lp2418
Vauto
p2419
aVauto
p2420
aF0
aF0
aF1
aF1
aaaaa(lp2421
VtranslateY
p2422
a(lp2423
(lp2424
F0
aF0
a(lp2425
Vauto
p2426
aVauto
p2427
aF0
aF0
aF1
aF1
aaa(lp2428
F15
aF0
a(lp2429
Vauto
p2430
aVauto
p2431
aF0
aF0
aF1
aF1
aaa(lp2432
F30
aF0
a(lp2433
Vauto
p2434
aVauto
p2435
aF0
aF0
aF1
aF1
aaaaa(lp2436
VtranslateZ
p2437
a(lp2438
(lp2439
F0
aF-1.7763568394002505e-15
a(lp2440
Vauto
p2441
aVauto
p2442
aF0
aF0
aF1
aF1
aaa(lp2443
F15
aF-1.7763568394002505e-15
a(lp2444
Vauto
p2445
aVauto
p2446
aF0
aF0
aF1
aF1
aaa(lp2447
F30
aF-1.7763568394002505e-15
a(lp2448
Vauto
p2449
aVauto
p2450
aF0
aF0
aF1
aF1
aaaaa(lp2451
VrotateX
p2452
a(lp2453
(lp2454
F0
aF0
a(lp2455
Vauto
p2456
aVauto
p2457
aF0
aF0
aF1
aF1
aaa(lp2458
F15
aF0
a(lp2459
Vauto
p2460
aVauto
p2461
aF0
aF0
aF1
aF1
aaa(lp2462
F30
aF0
a(lp2463
Vauto
p2464
aVauto
p2465
aF0
aF0
aF1
aF1
aaaaa(lp2466
VrotateY
p2467
a(lp2468
(lp2469
F0
aF-0
a(lp2470
Vauto
p2471
aVauto
p2472
aF0
aF0
aF1
aF1
aaa(lp2473
F15
aF-0
a(lp2474
Vauto
p2475
aVauto
p2476
aF0
aF0
aF1
aF1
aaa(lp2477
F30
aF-0
a(lp2478
Vauto
p2479
aVauto
p2480
aF0
aF0
aF1
aF1
aaaaa(lp2481
VrotateZ
p2482
a(lp2483
(lp2484
F0
aF-0
a(lp2485
Vauto
p2486
aVauto
p2487
aF0
aF0
aF1
aF1
aaa(lp2488
F15
aF-0
a(lp2489
Vauto
p2490
aVauto
p2491
aF0
aF0
aF1
aF1
aaa(lp2492
F30
aF-0
a(lp2493
Vauto
p2494
aVauto
p2495
aF0
aF0
aF1
aF1
aaaaa(lp2496
Vknee_twist
p2497
a(lp2498
(lp2499
F0
aF0
a(lp2500
Vauto
p2501
aVauto
p2502
aF0
aF0
aF1
aF1
aaa(lp2503
F15
aF0
a(lp2504
Vauto
p2505
aVauto
p2506
aF0
aF0
aF1
aF1
aaa(lp2507
F30
aF0
a(lp2508
Vauto
p2509
aVauto
p2510
aF0
aF0
aF1
aF1
aaaaa(lp2511
Vstretch
p2512
a(lp2513
(lp2514
F0
aF0
a(lp2515
Vauto
p2516
aVauto
p2517
aF0
aF0
aF1
aF1
aaa(lp2518
F15
aF0
a(lp2519
Vauto
p2520
aVauto
p2521
aF0
aF0
aF1
aF1
aaa(lp2522
F30
aF0
a(lp2523
Vauto
p2524
aVauto
p2525
aF0
aF0
aF1
aF1
aaaaa(lp2526
Vsquash
p2527
a(lp2528
(lp2529
F0
aF0
a(lp2530
Vauto
p2531
aVauto
p2532
aF0
aF0
aF1
aF1
aaa(lp2533
F15
aF0
a(lp2534
Vauto
p2535
aVauto
p2536
aF0
aF0
aF1
aF1
aaa(lp2537
F30
aF0
a(lp2538
Vauto
p2539
aVauto
p2540
aF0
aF0
aF1
aF1
aaaaa(lp2541
VtoeCtrlVis
p2542
a(lp2543
(lp2544
F0
aF0
a(lp2545
Vspline
p2546
aVstep
p2547
aF0
aF0
aF1
aF0
aaa(lp2548
F15
aF0
a(lp2549
Vspline
p2550
aVstep
p2551
aF0
aF0
aF1
aF0
aaa(lp2552
F30
aF0
a(lp2553
Vspline
p2554
aVstep
p2555
aF0
aF0
aF1
aF0
aaaaaaaaa(lp2556
S'heel_ctrl_l'
p2557
a(lp2558
(lp2559
Na(lp2560
(lp2561
VrotateX
p2562
a(lp2563
(lp2564
F0
aF2.1181581302668755e-13
a(lp2565
Vauto
p2566
aVauto
p2567
aF0
aF0
aF1
aF1
aaa(lp2568
F15
aF2.1181581302668755e-13
a(lp2569
Vauto
p2570
aVauto
p2571
aF0
aF0
aF1
aF1
aaa(lp2572
F30
aF2.1181581302668755e-13
a(lp2573
Vauto
p2574
aVauto
p2575
aF0
aF0
aF1
aF1
aaaaa(lp2576
VrotateY
p2577
a(lp2578
(lp2579
F0
aF1.9406353173617244e-14
a(lp2580
Vauto
p2581
aVauto
p2582
aF0
aF0
aF1
aF1
aaa(lp2583
F15
aF1.9406353173617244e-14
a(lp2584
Vauto
p2585
aVauto
p2586
aF0
aF0
aF1
aF1
aaa(lp2587
F30
aF1.9406353173617244e-14
a(lp2588
Vauto
p2589
aVauto
p2590
aF0
aF0
aF1
aF1
aaaaa(lp2591
VrotateZ
p2592
a(lp2593
(lp2594
F0
aF0
a(lp2595
Vauto
p2596
aVauto
p2597
aF0
aF0
aF1
aF1
aaa(lp2598
F15
aF0
a(lp2599
Vauto
p2600
aVauto
p2601
aF0
aF0
aF1
aF1
aaa(lp2602
F30
aF0
a(lp2603
Vauto
p2604
aVauto
p2605
aF0
aF0
aF1
aF1
aaaaa(lp2606
VheelPivot
p2607
a(lp2608
(lp2609
F0
aF0
a(lp2610
Vauto
p2611
aVauto
p2612
aF0
aF0
aF1
aF1
aaa(lp2613
F15
aF0
a(lp2614
Vauto
p2615
aVauto
p2616
aF0
aF0
aF1
aF1
aaa(lp2617
F30
aF0
a(lp2618
Vauto
p2619
aVauto
p2620
aF0
aF0
aF1
aF1
aaaaa(lp2621
VballPivot
p2622
a(lp2623
(lp2624
F0
aF0
a(lp2625
Vauto
p2626
aVauto
p2627
aF0
aF0
aF1
aF1
aaa(lp2628
F15
aF0
a(lp2629
Vauto
p2630
aVauto
p2631
aF0
aF0
aF1
aF1
aaa(lp2632
F30
aF0
a(lp2633
Vauto
p2634
aVauto
p2635
aF0
aF0
aF1
aF1
aaaaaaaaa(lp2636
S'heel_ctrl_r'
p2637
a(lp2638
(lp2639
Na(lp2640
(lp2641
VrotateX
p2642
a(lp2643
(lp2644
F0
aF1.8251426873078172e-13
a(lp2645
Vauto
p2646
aVauto
p2647
aF0
aF0
aF1
aF1
aaa(lp2648
F15
aF1.8251426873078172e-13
a(lp2649
Vauto
p2650
aVauto
p2651
aF0
aF0
aF1
aF1
aaa(lp2652
F30
aF1.8251426873078172e-13
a(lp2653
Vauto
p2654
aVauto
p2655
aF0
aF0
aF1
aF1
aaaaa(lp2656
VrotateY
p2657
a(lp2658
(lp2659
F0
aF-1.2709794684129595e-14
a(lp2660
Vauto
p2661
aVauto
p2662
aF0
aF0
aF1
aF1
aaa(lp2663
F15
aF-1.2709794684129595e-14
a(lp2664
Vauto
p2665
aVauto
p2666
aF0
aF0
aF1
aF1
aaa(lp2667
F30
aF-1.2709794684129595e-14
a(lp2668
Vauto
p2669
aVauto
p2670
aF0
aF0
aF1
aF1
aaaaa(lp2671
VrotateZ
p2672
a(lp2673
(lp2674
F0
aF0
a(lp2675
Vauto
p2676
aVauto
p2677
aF0
aF0
aF1
aF1
aaa(lp2678
F15
aF0
a(lp2679
Vauto
p2680
aVauto
p2681
aF0
aF0
aF1
aF1
aaa(lp2682
F30
aF0
a(lp2683
Vauto
p2684
aVauto
p2685
aF0
aF0
aF1
aF1
aaaaa(lp2686
VheelPivot
p2687
a(lp2688
(lp2689
F0
aF0
a(lp2690
Vauto
p2691
aVauto
p2692
aF0
aF0
aF1
aF1
aaa(lp2693
F15
aF0
a(lp2694
Vauto
p2695
aVauto
p2696
aF0
aF0
aF1
aF1
aaa(lp2697
F30
aF0
a(lp2698
Vauto
p2699
aVauto
p2700
aF0
aF0
aF1
aF1
aaaaa(lp2701
VballPivot
p2702
a(lp2703
(lp2704
F0
aF0
a(lp2705
Vauto
p2706
aVauto
p2707
aF0
aF0
aF1
aF1
aaa(lp2708
F15
aF0
a(lp2709
Vauto
p2710
aVauto
p2711
aF0
aF0
aF1
aF1
aaa(lp2712
F30
aF0
a(lp2713
Vauto
p2714
aVauto
p2715
aF0
aF0
aF1
aF1
aaaaaaaaa(lp2716
S'toe_wiggle_ctrl_l'
p2717
a(lp2718
(lp2719
Na(lp2720
(lp2721
VrotateX
p2722
a(lp2723
(lp2724
F0
aF0
a(lp2725
Vauto
p2726
aVauto
p2727
aF0
aF0
aF1
aF1
aaa(lp2728
F15
aF0
a(lp2729
Vauto
p2730
aVauto
p2731
aF0
aF0
aF1
aF1
aaa(lp2732
F30
aF0
a(lp2733
Vauto
p2734
aVauto
p2735
aF0
aF0
aF1
aF1
aaaaa(lp2736
VrotateY
p2737
a(lp2738
(lp2739
F0
aF1.765562493485407e-31
a(lp2740
Vauto
p2741
aVauto
p2742
aF0
aF0
aF1
aF1
aaa(lp2743
F15
aF1.765562493485407e-31
a(lp2744
Vauto
p2745
aVauto
p2746
aF0
aF0
aF1
aF1
aaa(lp2747
F30
aF1.765562493485407e-31
a(lp2748
Vauto
p2749
aVauto
p2750
aF0
aF0
aF1
aF1
aaaaa(lp2751
VrotateZ
p2752
a(lp2753
(lp2754
F0
aF0
a(lp2755
Vauto
p2756
aVauto
p2757
aF0
aF0
aF1
aF1
aaa(lp2758
F15
aF0
a(lp2759
Vauto
p2760
aVauto
p2761
aF0
aF0
aF1
aF1
aaa(lp2762
F30
aF0
a(lp2763
Vauto
p2764
aVauto
p2765
aF0
aF0
aF1
aF1
aaaaaaaaa(lp2766
S'toe_wiggle_ctrl_r'
p2767
a(lp2768
(lp2769
Na(lp2770
(lp2771
VrotateX
p2772
a(lp2773
(lp2774
F0
aF0
a(lp2775
Vauto
p2776
aVauto
p2777
aF0
aF0
aF1
aF1
aaa(lp2778
F15
aF0
a(lp2779
Vauto
p2780
aVauto
p2781
aF0
aF0
aF1
aF1
aaa(lp2782
F30
aF0
a(lp2783
Vauto
p2784
aVauto
p2785
aF0
aF0
aF1
aF1
aaaaa(lp2786
VrotateY
p2787
a(lp2788
(lp2789
F0
aF1.765562493485407e-31
a(lp2790
Vauto
p2791
aVauto
p2792
aF0
aF0
aF1
aF1
aaa(lp2793
F15
aF1.765562493485407e-31
a(lp2794
Vauto
p2795
aVauto
p2796
aF0
aF0
aF1
aF1
aaa(lp2797
F30
aF1.765562493485407e-31
a(lp2798
Vauto
p2799
aVauto
p2800
aF0
aF0
aF1
aF1
aaaaa(lp2801
VrotateZ
p2802
a(lp2803
(lp2804
F0
aF0
a(lp2805
Vauto
p2806
aVauto
p2807
aF0
aF0
aF1
aF1
aaa(lp2808
F15
aF0
a(lp2809
Vauto
p2810
aVauto
p2811
aF0
aF0
aF1
aF1
aaa(lp2812
F30
aF0
a(lp2813
Vauto
p2814
aVauto
p2815
aF0
aF0
aF1
aF1
aaaaaaaaa(lp2816
S'toe_tip_ctrl_l'
p2817
a(lp2818
(lp2819
Na(lp2820
(lp2821
VrotateX
p2822
a(lp2823
(lp2824
F0
aF0
a(lp2825
Vauto
p2826
aVauto
p2827
aF0
aF0
aF1
aF1
aaa(lp2828
F15
aF0
a(lp2829
Vauto
p2830
aVauto
p2831
aF0
aF0
aF1
aF1
aaa(lp2832
F30
aF0
a(lp2833
Vauto
p2834
aVauto
p2835
aF0
aF0
aF1
aF1
aaaaa(lp2836
VrotateY
p2837
a(lp2838
(lp2839
F0
aF1.765562493485407e-31
a(lp2840
Vauto
p2841
aVauto
p2842
aF0
aF0
aF1
aF1
aaa(lp2843
F15
aF1.765562493485407e-31
a(lp2844
Vauto
p2845
aVauto
p2846
aF0
aF0
aF1
aF1
aaa(lp2847
F30
aF1.765562493485407e-31
a(lp2848
Vauto
p2849
aVauto
p2850
aF0
aF0
aF1
aF1
aaaaa(lp2851
VrotateZ
p2852
a(lp2853
(lp2854
F0
aF0
a(lp2855
Vauto
p2856
aVauto
p2857
aF0
aF0
aF1
aF1
aaa(lp2858
F15
aF0
a(lp2859
Vauto
p2860
aVauto
p2861
aF0
aF0
aF1
aF1
aaa(lp2862
F30
aF0
a(lp2863
Vauto
p2864
aVauto
p2865
aF0
aF0
aF1
aF1
aaaaaaaaa(lp2866
S'toe_tip_ctrl_r'
p2867
a(lp2868
(lp2869
Na(lp2870
(lp2871
VrotateX
p2872
a(lp2873
(lp2874
F0
aF0
a(lp2875
Vauto
p2876
aVauto
p2877
aF0
aF0
aF1
aF1
aaa(lp2878
F15
aF0
a(lp2879
Vauto
p2880
aVauto
p2881
aF0
aF0
aF1
aF1
aaa(lp2882
F30
aF0
a(lp2883
Vauto
p2884
aVauto
p2885
aF0
aF0
aF1
aF1
aaaaa(lp2886
VrotateY
p2887
a(lp2888
(lp2889
F0
aF1.765562493485407e-31
a(lp2890
Vauto
p2891
aVauto
p2892
aF0
aF0
aF1
aF1
aaa(lp2893
F15
aF1.765562493485407e-31
a(lp2894
Vauto
p2895
aVauto
p2896
aF0
aF0
aF1
aF1
aaa(lp2897
F30
aF1.765562493485407e-31
a(lp2898
Vauto
p2899
aVauto
p2900
aF0
aF0
aF1
aF1
aaaaa(lp2901
VrotateZ
p2902
a(lp2903
(lp2904
F0
aF0
a(lp2905
Vauto
p2906
aVauto
p2907
aF0
aF0
aF1
aF1
aaa(lp2908
F15
aF0
a(lp2909
Vauto
p2910
aVauto
p2911
aF0
aF0
aF1
aF1
aaa(lp2912
F30
aF0
a(lp2913
Vauto
p2914
aVauto
p2915
aF0
aF0
aF1
aF1
aaaaaaaaa(lp2916
S'master_anim'
p2917
a(lp2918
(lp2919
Na(lp2920
(lp2921
VtranslateX
p2922
a(lp2923
(lp2924
F0
aF0
a(lp2925
Vauto
p2926
aVauto
p2927
aF0
aF0
aF1
aF1
aaa(lp2928
F15
aF0
a(lp2929
Vauto
p2930
aVauto
p2931
aF0
aF0
aF1
aF1
aaa(lp2932
F30
aF0
a(lp2933
Vauto
p2934
aVauto
p2935
aF0
aF0
aF1
aF1
aaaaa(lp2936
VtranslateY
p2937
a(lp2938
(lp2939
F0
aF0
a(lp2940
Vauto
p2941
aVauto
p2942
aF0
aF0
aF1
aF1
aaa(lp2943
F15
aF0
a(lp2944
Vauto
p2945
aVauto
p2946
aF0
aF0
aF1
aF1
aaa(lp2947
F30
aF0
a(lp2948
Vauto
p2949
aVauto
p2950
aF0
aF0
aF1
aF1
aaaaa(lp2951
VtranslateZ
p2952
a(lp2953
(lp2954
F0
aF0
a(lp2955
Vauto
p2956
aVauto
p2957
aF0
aF0
aF1
aF1
aaa(lp2958
F15
aF0
a(lp2959
Vauto
p2960
aVauto
p2961
aF0
aF0
aF1
aF1
aaa(lp2962
F30
aF0
a(lp2963
Vauto
p2964
aVauto
p2965
aF0
aF0
aF1
aF1
aaaaa(lp2966
VrotateX
p2967
a(lp2968
(lp2969
F0
aF0
a(lp2970
Vauto
p2971
aVauto
p2972
aF0
aF0
aF1
aF1
aaa(lp2973
F15
aF0
a(lp2974
Vauto
p2975
aVauto
p2976
aF0
aF0
aF1
aF1
aaa(lp2977
F30
aF0
a(lp2978
Vauto
p2979
aVauto
p2980
aF0
aF0
aF1
aF1
aaaaa(lp2981
VrotateY
p2982
a(lp2983
(lp2984
F0
aF0
a(lp2985
Vauto
p2986
aVauto
p2987
aF0
aF0
aF1
aF1
aaa(lp2988
F15
aF0
a(lp2989
Vauto
p2990
aVauto
p2991
aF0
aF0
aF1
aF1
aaa(lp2992
F30
aF0
a(lp2993
Vauto
p2994
aVauto
p2995
aF0
aF0
aF1
aF1
aaaaa(lp2996
VrotateZ
p2997
a(lp2998
(lp2999
F0
aF0
a(lp3000
Vauto
p3001
aVauto
p3002
aF0
aF0
aF1
aF1
aaa(lp3003
F15
aF0
a(lp3004
Vauto
p3005
aVauto
p3006
aF0
aF0
aF1
aF1
aaa(lp3007
F30
aF0
a(lp3008
Vauto
p3009
aVauto
p3010
aF0
aF0
aF1
aF1
aaaaaaaaa(lp3011
S'offset_anim'
p3012
a(lp3013
(lp3014
Na(lp3015
(lp3016
VtranslateX
p3017
a(lp3018
(lp3019
F0
aF0
a(lp3020
Vauto
p3021
aVauto
p3022
aF0
aF0
aF1
aF1
aaa(lp3023
F15
aF0
a(lp3024
Vauto
p3025
aVauto
p3026
aF0
aF0
aF1
aF1
aaa(lp3027
F30
aF0
a(lp3028
Vauto
p3029
aVauto
p3030
aF0
aF0
aF1
aF1
aaaaa(lp3031
VtranslateY
p3032
a(lp3033
(lp3034
F0
aF0
a(lp3035
Vauto
p3036
aVauto
p3037
aF0
aF0
aF1
aF1
aaa(lp3038
F15
aF0
a(lp3039
Vauto
p3040
aVauto
p3041
aF0
aF0
aF1
aF1
aaa(lp3042
F30
aF0
a(lp3043
Vauto
p3044
aVauto
p3045
aF0
aF0
aF1
aF1
aaaaa(lp3046
VtranslateZ
p3047
a(lp3048
(lp3049
F0
aF0
a(lp3050
Vauto
p3051
aVauto
p3052
aF0
aF0
aF1
aF1
aaa(lp3053
F15
aF0
a(lp3054
Vauto
p3055
aVauto
p3056
aF0
aF0
aF1
aF1
aaa(lp3057
F30
aF0
a(lp3058
Vauto
p3059
aVauto
p3060
aF0
aF0
aF1
aF1
aaaaa(lp3061
VrotateX
p3062
a(lp3063
(lp3064
F0
aF0
a(lp3065
Vauto
p3066
aVauto
p3067
aF0
aF0
aF1
aF1
aaa(lp3068
F15
aF0
a(lp3069
Vauto
p3070
aVauto
p3071
aF0
aF0
aF1
aF1
aaa(lp3072
F30
aF0
a(lp3073
Vauto
p3074
aVauto
p3075
aF0
aF0
aF1
aF1
aaaaa(lp3076
VrotateY
p3077
a(lp3078
(lp3079
F0
aF0
a(lp3080
Vauto
p3081
aVauto
p3082
aF0
aF0
aF1
aF1
aaa(lp3083
F15
aF0
a(lp3084
Vauto
p3085
aVauto
p3086
aF0
aF0
aF1
aF1
aaa(lp3087
F30
aF0
a(lp3088
Vauto
p3089
aVauto
p3090
aF0
aF0
aF1
aF1
aaaaa(lp3091
VrotateZ
p3092
a(lp3093
(lp3094
F0
aF0
a(lp3095
Vauto
p3096
aVauto
p3097
aF0
aF0
aF1
aF1
aaa(lp3098
F15
aF0
a(lp3099
Vauto
p3100
aVauto
p3101
aF0
aF0
aF1
aF1
aaa(lp3102
F30
aF0
a(lp3103
Vauto
p3104
aVauto
p3105
aF0
aF0
aF1
aF1
aaaaaaaaa(lp3106
S'root_anim'
p3107
a(lp3108
(lp3109
Na(lp3110
(lp3111
VtranslateX
p3112
a(lp3113
(lp3114
F0
aF0
a(lp3115
Vauto
p3116
aVauto
p3117
aF0
aF0
aF1
aF1
aaa(lp3118
F15
aF0
a(lp3119
Vauto
p3120
aVauto
p3121
aF0
aF0
aF1
aF1
aaa(lp3122
F30
aF0
a(lp3123
Vauto
p3124
aVauto
p3125
aF0
aF0
aF1
aF1
aaaaa(lp3126
VtranslateY
p3127
a(lp3128
(lp3129
F0
aF0
a(lp3130
Vauto
p3131
aVauto
p3132
aF0
aF0
aF1
aF1
aaa(lp3133
F15
aF0
a(lp3134
Vauto
p3135
aVauto
p3136
aF0
aF0
aF1
aF1
aaa(lp3137
F30
aF0
a(lp3138
Vauto
p3139
aVauto
p3140
aF0
aF0
aF1
aF1
aaaaa(lp3141
VtranslateZ
p3142
a(lp3143
(lp3144
F0
aF0
a(lp3145
Vauto
p3146
aVauto
p3147
aF0
aF0
aF1
aF1
aaa(lp3148
F15
aF0
a(lp3149
Vauto
p3150
aVauto
p3151
aF0
aF0
aF1
aF1
aaa(lp3152
F30
aF0
a(lp3153
Vauto
p3154
aVauto
p3155
aF0
aF0
aF1
aF1
aaaaa(lp3156
VrotateX
p3157
a(lp3158
(lp3159
F0
aF0
a(lp3160
Vauto
p3161
aVauto
p3162
aF0
aF0
aF1
aF1
aaa(lp3163
F15
aF0
a(lp3164
Vauto
p3165
aVauto
p3166
aF0
aF0
aF1
aF1
aaa(lp3167
F30
aF0
a(lp3168
Vauto
p3169
aVauto
p3170
aF0
aF0
aF1
aF1
aaaaa(lp3171
VrotateY
p3172
a(lp3173
(lp3174
F0
aF0
a(lp3175
Vauto
p3176
aVauto
p3177
aF0
aF0
aF1
aF1
aaa(lp3178
F15
aF0
a(lp3179
Vauto
p3180
aVauto
p3181
aF0
aF0
aF1
aF1
aaa(lp3182
F30
aF0
a(lp3183
Vauto
p3184
aVauto
p3185
aF0
aF0
aF1
aF1
aaaaa(lp3186
VrotateZ
p3187
a(lp3188
(lp3189
F0
aF0
a(lp3190
Vauto
p3191
aVauto
p3192
aF0
aF0
aF1
aF1
aaa(lp3193
F15
aF0
a(lp3194
Vauto
p3195
aVauto
p3196
aF0
aF0
aF1
aF1
aaa(lp3197
F30
aF0
a(lp3198
Vauto
p3199
aVauto
p3200
aF0
aF0
aF1
aF1
aaaaaaaaa(lp3201
S'upperarm_l_twist_anim'
p3202
a(lp3203
(lp3204
Na(lp3205
(lp3206
VtranslateX
p3207
a(lp3208
(lp3209
F0
aF0
a(lp3210
Vauto
p3211
aVauto
p3212
aF0
aF0
aF0
aF0
aaaaa(lp3213
VtranslateY
p3214
a(lp3215
(lp3216
F0
aF0
a(lp3217
Vauto
p3218
aVauto
p3219
aF0
aF0
aF0
aF0
aaaaa(lp3220
VtranslateZ
p3221
a(lp3222
(lp3223
F0
aF0
a(lp3224
Vauto
p3225
aVauto
p3226
aF0
aF0
aF0
aF0
aaaaa(lp3227
VrotateX
p3228
a(lp3229
(lp3230
F0
aF0
a(lp3231
Vauto
p3232
aVauto
p3233
aF0
aF0
aF0
aF0
aaaaa(lp3234
VrotateY
p3235
a(lp3236
(lp3237
F0
aF0
a(lp3238
Vauto
p3239
aVauto
p3240
aF0
aF0
aF0
aF0
aaaaa(lp3241
VrotateZ
p3242
a(lp3243
(lp3244
F0
aF0
a(lp3245
Vauto
p3246
aVauto
p3247
aF0
aF0
aF0
aF0
aaaaa(lp3248
VscaleX
p3249
a(lp3250
(lp3251
F0
aF1
a(lp3252
Vauto
p3253
aVauto
p3254
aF0
aF0
aF0
aF0
aaaaa(lp3255
VscaleY
p3256
a(lp3257
(lp3258
F0
aF1
a(lp3259
Vauto
p3260
aVauto
p3261
aF0
aF0
aF0
aF0
aaaaa(lp3262
VscaleZ
p3263
a(lp3264
(lp3265
F0
aF1
a(lp3266
Vauto
p3267
aVauto
p3268
aF0
aF0
aF0
aF0
aaaaaaaaa(lp3269
S'upperarm_r_twist_anim'
p3270
a(lp3271
(lp3272
Na(lp3273
(lp3274
VtranslateX
p3275
a(lp3276
(lp3277
F0
aF0
a(lp3278
Vauto
p3279
aVauto
p3280
aF0
aF0
aF0
aF0
aaaaa(lp3281
VtranslateY
p3282
a(lp3283
(lp3284
F0
aF0
a(lp3285
Vauto
p3286
aVauto
p3287
aF0
aF0
aF0
aF0
aaaaa(lp3288
VtranslateZ
p3289
a(lp3290
(lp3291
F0
aF0
a(lp3292
Vauto
p3293
aVauto
p3294
aF0
aF0
aF0
aF0
aaaaa(lp3295
VrotateX
p3296
a(lp3297
(lp3298
F0
aF0
a(lp3299
Vauto
p3300
aVauto
p3301
aF0
aF0
aF0
aF0
aaaaa(lp3302
VrotateY
p3303
a(lp3304
(lp3305
F0
aF0
a(lp3306
Vauto
p3307
aVauto
p3308
aF0
aF0
aF0
aF0
aaaaa(lp3309
VrotateZ
p3310
a(lp3311
(lp3312
F0
aF0
a(lp3313
Vauto
p3314
aVauto
p3315
aF0
aF0
aF0
aF0
aaaaa(lp3316
VscaleX
p3317
a(lp3318
(lp3319
F0
aF1
a(lp3320
Vauto
p3321
aVauto
p3322
aF0
aF0
aF0
aF0
aaaaa(lp3323
VscaleY
p3324
a(lp3325
(lp3326
F0
aF1
a(lp3327
Vauto
p3328
aVauto
p3329
aF0
aF0
aF0
aF0
aaaaa(lp3330
VscaleZ
p3331
a(lp3332
(lp3333
F0
aF1
a(lp3334
Vauto
p3335
aVauto
p3336
aF0
aF0
aF0
aF0
aaaaaaaaa(lp3337
S'thigh_l_twist_anim'
p3338
a(lp3339
(lp3340
Na(lp3341
(lp3342
VtranslateX
p3343
a(lp3344
(lp3345
F0
aF0
a(lp3346
Vauto
p3347
aVauto
p3348
aF0
aF0
aF0
aF0
aaaaa(lp3349
VtranslateY
p3350
a(lp3351
(lp3352
F0
aF0
a(lp3353
Vauto
p3354
aVauto
p3355
aF0
aF0
aF0
aF0
aaaaa(lp3356
VtranslateZ
p3357
a(lp3358
(lp3359
F0
aF0
a(lp3360
Vauto
p3361
aVauto
p3362
aF0
aF0
aF0
aF0
aaaaa(lp3363
VrotateX
p3364
a(lp3365
(lp3366
F0
aF0
a(lp3367
Vauto
p3368
aVauto
p3369
aF0
aF0
aF0
aF0
aaaaa(lp3370
VrotateY
p3371
a(lp3372
(lp3373
F0
aF0
a(lp3374
Vauto
p3375
aVauto
p3376
aF0
aF0
aF0
aF0
aaaaa(lp3377
VrotateZ
p3378
a(lp3379
(lp3380
F0
aF0
a(lp3381
Vauto
p3382
aVauto
p3383
aF0
aF0
aF0
aF0
aaaaaaaaa(lp3384
S'thigh_r_twist_anim'
p3385
a(lp3386
(lp3387
Na(lp3388
(lp3389
VtranslateX
p3390
a(lp3391
(lp3392
F0
aF0
a(lp3393
Vauto
p3394
aVauto
p3395
aF0
aF0
aF0
aF0
aaaaa(lp3396
VtranslateY
p3397
a(lp3398
(lp3399
F0
aF0
a(lp3400
Vauto
p3401
aVauto
p3402
aF0
aF0
aF0
aF0
aaaaa(lp3403
VtranslateZ
p3404
a(lp3405
(lp3406
F0
aF0
a(lp3407
Vauto
p3408
aVauto
p3409
aF0
aF0
aF0
aF0
aaaaa(lp3410
VrotateX
p3411
a(lp3412
(lp3413
F0
aF0
a(lp3414
Vauto
p3415
aVauto
p3416
aF0
aF0
aF0
aF0
aaaaa(lp3417
VrotateY
p3418
a(lp3419
(lp3420
F0
aF0
a(lp3421
Vauto
p3422
aVauto
p3423
aF0
aF0
aF0
aF0
aaaaa(lp3424
VrotateZ
p3425
a(lp3426
(lp3427
F0
aF0
a(lp3428
Vauto
p3429
aVauto
p3430
aF0
aF0
aF0
aF0
aaaaaaaaa(lp3431
S'pinky_metacarpal_ctrl_l'
p3432
a(lp3433
(lp3434
Na(lp3435
(lp3436
VrotateX
p3437
a(lp3438
(lp3439
F0
aF0
a(lp3440
Vauto
p3441
aVauto
p3442
aF0
aF0
aF1
aF1
aaa(lp3443
F15
aF0
a(lp3444
Vauto
p3445
aVauto
p3446
aF0
aF0
aF1
aF1
aaa(lp3447
F30
aF0
a(lp3448
Vauto
p3449
aVauto
p3450
aF0
aF0
aF1
aF1
aaaaa(lp3451
VrotateY
p3452
a(lp3453
(lp3454
F0
aF0.29436197409999998
a(lp3455
Vauto
p3456
aVauto
p3457
aF0
aF0
aF1
aF1
aaa(lp3458
F15
aF0.29436197409999998
a(lp3459
Vauto
p3460
aVauto
p3461
aF0
aF0
aF1
aF1
aaa(lp3462
F30
aF0.29436197409999998
a(lp3463
Vauto
p3464
aVauto
p3465
aF0
aF0
aF1
aF1
aaaaa(lp3466
VrotateZ
p3467
a(lp3468
(lp3469
F0
aF3.1550583470000002
a(lp3470
Vauto
p3471
aVauto
p3472
aF0
aF0
aF1
aF1
aaa(lp3473
F15
aF3.1550583470000002
a(lp3474
Vauto
p3475
aVauto
p3476
aF0
aF0
aF1
aF1
aaa(lp3477
F30
aF3.1550583470000002
a(lp3478
Vauto
p3479
aVauto
p3480
aF0
aF0
aF1
aF1
aaaaaaaaa(lp3481
S'pinky_metacarpal_ctrl_r'
p3482
a(lp3483
(lp3484
Na(lp3485
(lp3486
VrotateX
p3487
a(lp3488
(lp3489
F0
aF0
a(lp3490
Vauto
p3491
aVauto
p3492
aF0
aF0
aF1
aF1
aaa(lp3493
F15
aF0
a(lp3494
Vauto
p3495
aVauto
p3496
aF0
aF0
aF1
aF1
aaa(lp3497
F30
aF0
a(lp3498
Vauto
p3499
aVauto
p3500
aF0
aF0
aF1
aF1
aaaaa(lp3501
VrotateY
p3502
a(lp3503
(lp3504
F0
aF0.29436197409999998
a(lp3505
Vauto
p3506
aVauto
p3507
aF0
aF0
aF1
aF1
aaa(lp3508
F15
aF0.29436197409999998
a(lp3509
Vauto
p3510
aVauto
p3511
aF0
aF0
aF1
aF1
aaa(lp3512
F30
aF0.29436197409999998
a(lp3513
Vauto
p3514
aVauto
p3515
aF0
aF0
aF1
aF1
aaaaa(lp3516
VrotateZ
p3517
a(lp3518
(lp3519
F0
aF3.1550583470000002
a(lp3520
Vauto
p3521
aVauto
p3522
aF0
aF0
aF1
aF1
aaa(lp3523
F15
aF3.1550583470000002
a(lp3524
Vauto
p3525
aVauto
p3526
aF0
aF0
aF1
aF1
aaa(lp3527
F30
aF3.1550583470000002
a(lp3528
Vauto
p3529
aVauto
p3530
aF0
aF0
aF1
aF1
aaaaaaaaa(lp3531
S'pinky_finger_fk_ctrl_1_l'
p3532
a(lp3533
(lp3534
Na(lp3535
(lp3536
VtranslateX
p3537
a(lp3538
(lp3539
F0
aF0
a(lp3540
Vauto
p3541
aVauto
p3542
aF0
aF0
aF1
aF1
aaa(lp3543
F15
aF0
a(lp3544
Vauto
p3545
aVauto
p3546
aF0
aF0
aF1
aF1
aaa(lp3547
F30
aF0
a(lp3548
Vauto
p3549
aVauto
p3550
aF0
aF0
aF1
aF1
aaaaa(lp3551
VtranslateY
p3552
a(lp3553
(lp3554
F0
aF0
a(lp3555
Vauto
p3556
aVauto
p3557
aF0
aF0
aF1
aF1
aaa(lp3558
F15
aF0
a(lp3559
Vauto
p3560
aVauto
p3561
aF0
aF0
aF1
aF1
aaa(lp3562
F30
aF0
a(lp3563
Vauto
p3564
aVauto
p3565
aF0
aF0
aF1
aF1
aaaaa(lp3566
VtranslateZ
p3567
a(lp3568
(lp3569
F0
aF0
a(lp3570
Vauto
p3571
aVauto
p3572
aF0
aF0
aF1
aF1
aaa(lp3573
F15
aF0
a(lp3574
Vauto
p3575
aVauto
p3576
aF0
aF0
aF1
aF1
aaa(lp3577
F30
aF0
a(lp3578
Vauto
p3579
aVauto
p3580
aF0
aF0
aF1
aF1
aaaaa(lp3581
VrotateX
p3582
a(lp3583
(lp3584
F0
aF-0.4250018418
a(lp3585
Vauto
p3586
aVauto
p3587
aF0
aF0
aF1
aF1
aaa(lp3588
F15
aF-0.4250018418
a(lp3589
Vauto
p3590
aVauto
p3591
aF0
aF0
aF1
aF1
aaa(lp3592
F30
aF-0.4250018418
a(lp3593
Vauto
p3594
aVauto
p3595
aF0
aF0
aF1
aF1
aaaaa(lp3596
VrotateY
p3597
a(lp3598
(lp3599
F0
aF6.4714769199999997
a(lp3600
Vauto
p3601
aVauto
p3602
aF0
aF0
aF1
aF1
aaa(lp3603
F15
aF6.4714769199999997
a(lp3604
Vauto
p3605
aVauto
p3606
aF0
aF0
aF1
aF1
aaa(lp3607
F30
aF6.4714769199999997
a(lp3608
Vauto
p3609
aVauto
p3610
aF0
aF0
aF1
aF1
aaaaa(lp3611
VrotateZ
p3612
a(lp3613
(lp3614
F0
aF7.9148873250000005
a(lp3615
Vauto
p3616
aVauto
p3617
aF0
aF0
aF1
aF1
aaa(lp3618
F15
aF7.9148873250000005
a(lp3619
Vauto
p3620
aVauto
p3621
aF0
aF0
aF1
aF1
aaa(lp3622
F30
aF7.9148873250000005
a(lp3623
Vauto
p3624
aVauto
p3625
aF0
aF0
aF1
aF1
aaaaa(lp3626
Vsticky
p3627
a(lp3628
(lp3629
F0
aF0
a(lp3630
Vauto
p3631
aVauto
p3632
aF0
aF0
aF1
aF1
aaa(lp3633
F15
aF0
a(lp3634
Vauto
p3635
aVauto
p3636
aF0
aF0
aF1
aF1
aaa(lp3637
F30
aF0
a(lp3638
Vauto
p3639
aVauto
p3640
aF0
aF0
aF1
aF1
aaaaaaaaa(lp3641
S'pinky_finger_fk_ctrl_1_r'
p3642
a(lp3643
(lp3644
Na(lp3645
(lp3646
VtranslateX
p3647
a(lp3648
(lp3649
F0
aF0
a(lp3650
Vauto
p3651
aVauto
p3652
aF0
aF0
aF1
aF1
aaa(lp3653
F15
aF0
a(lp3654
Vauto
p3655
aVauto
p3656
aF0
aF0
aF1
aF1
aaa(lp3657
F30
aF0
a(lp3658
Vauto
p3659
aVauto
p3660
aF0
aF0
aF1
aF1
aaaaa(lp3661
VtranslateY
p3662
a(lp3663
(lp3664
F0
aF0
a(lp3665
Vauto
p3666
aVauto
p3667
aF0
aF0
aF1
aF1
aaa(lp3668
F15
aF0
a(lp3669
Vauto
p3670
aVauto
p3671
aF0
aF0
aF1
aF1
aaa(lp3672
F30
aF0
a(lp3673
Vauto
p3674
aVauto
p3675
aF0
aF0
aF1
aF1
aaaaa(lp3676
VtranslateZ
p3677
a(lp3678
(lp3679
F0
aF0
a(lp3680
Vauto
p3681
aVauto
p3682
aF0
aF0
aF1
aF1
aaa(lp3683
F15
aF0
a(lp3684
Vauto
p3685
aVauto
p3686
aF0
aF0
aF1
aF1
aaa(lp3687
F30
aF0
a(lp3688
Vauto
p3689
aVauto
p3690
aF0
aF0
aF1
aF1
aaaaa(lp3691
VrotateX
p3692
a(lp3693
(lp3694
F0
aF-0.4250018418
a(lp3695
Vauto
p3696
aVauto
p3697
aF0
aF0
aF1
aF1
aaa(lp3698
F15
aF-0.4250018418
a(lp3699
Vauto
p3700
aVauto
p3701
aF0
aF0
aF1
aF1
aaa(lp3702
F30
aF-0.4250018418
a(lp3703
Vauto
p3704
aVauto
p3705
aF0
aF0
aF1
aF1
aaaaa(lp3706
VrotateY
p3707
a(lp3708
(lp3709
F0
aF6.4714769199999997
a(lp3710
Vauto
p3711
aVauto
p3712
aF0
aF0
aF1
aF1
aaa(lp3713
F15
aF6.4714769199999997
a(lp3714
Vauto
p3715
aVauto
p3716
aF0
aF0
aF1
aF1
aaa(lp3717
F30
aF6.4714769199999997
a(lp3718
Vauto
p3719
aVauto
p3720
aF0
aF0
aF1
aF1
aaaaa(lp3721
VrotateZ
p3722
a(lp3723
(lp3724
F0
aF7.9148873250000005
a(lp3725
Vauto
p3726
aVauto
p3727
aF0
aF0
aF1
aF1
aaa(lp3728
F15
aF7.9148873250000005
a(lp3729
Vauto
p3730
aVauto
p3731
aF0
aF0
aF1
aF1
aaa(lp3732
F30
aF7.9148873250000005
a(lp3733
Vauto
p3734
aVauto
p3735
aF0
aF0
aF1
aF1
aaaaa(lp3736
Vsticky
p3737
a(lp3738
(lp3739
F0
aF0
a(lp3740
Vauto
p3741
aVauto
p3742
aF0
aF0
aF1
aF1
aaa(lp3743
F15
aF0
a(lp3744
Vauto
p3745
aVauto
p3746
aF0
aF0
aF1
aF1
aaa(lp3747
F30
aF0
a(lp3748
Vauto
p3749
aVauto
p3750
aF0
aF0
aF1
aF1
aaaaaaaaa(lp3751
S'pinky_finger_fk_ctrl_2_l'
p3752
a(lp3753
(lp3754
Na(lp3755
(lp3756
VtranslateX
p3757
a(lp3758
(lp3759
F0
aF0
a(lp3760
Vauto
p3761
aVauto
p3762
aF0
aF0
aF1
aF1
aaa(lp3763
F15
aF0
a(lp3764
Vauto
p3765
aVauto
p3766
aF0
aF0
aF1
aF1
aaa(lp3767
F30
aF0
a(lp3768
Vauto
p3769
aVauto
p3770
aF0
aF0
aF1
aF1
aaaaa(lp3771
VtranslateY
p3772
a(lp3773
(lp3774
F0
aF0
a(lp3775
Vauto
p3776
aVauto
p3777
aF0
aF0
aF1
aF1
aaa(lp3778
F15
aF0
a(lp3779
Vauto
p3780
aVauto
p3781
aF0
aF0
aF1
aF1
aaa(lp3782
F30
aF0
a(lp3783
Vauto
p3784
aVauto
p3785
aF0
aF0
aF1
aF1
aaaaa(lp3786
VtranslateZ
p3787
a(lp3788
(lp3789
F0
aF0
a(lp3790
Vauto
p3791
aVauto
p3792
aF0
aF0
aF1
aF1
aaa(lp3793
F15
aF0
a(lp3794
Vauto
p3795
aVauto
p3796
aF0
aF0
aF1
aF1
aaa(lp3797
F30
aF0
a(lp3798
Vauto
p3799
aVauto
p3800
aF0
aF0
aF1
aF1
aaaaa(lp3801
VrotateX
p3802
a(lp3803
(lp3804
F0
aF0
a(lp3805
Vauto
p3806
aVauto
p3807
aF0
aF0
aF1
aF1
aaa(lp3808
F15
aF0
a(lp3809
Vauto
p3810
aVauto
p3811
aF0
aF0
aF1
aF1
aaa(lp3812
F30
aF0
a(lp3813
Vauto
p3814
aVauto
p3815
aF0
aF0
aF1
aF1
aaaaa(lp3816
VrotateY
p3817
a(lp3818
(lp3819
F0
aF0
a(lp3820
Vauto
p3821
aVauto
p3822
aF0
aF0
aF1
aF1
aaa(lp3823
F15
aF0
a(lp3824
Vauto
p3825
aVauto
p3826
aF0
aF0
aF1
aF1
aaa(lp3827
F30
aF0
a(lp3828
Vauto
p3829
aVauto
p3830
aF0
aF0
aF1
aF1
aaaaa(lp3831
VrotateZ
p3832
a(lp3833
(lp3834
F0
aF39.3905174
a(lp3835
Vauto
p3836
aVauto
p3837
aF0
aF0
aF1
aF1
aaa(lp3838
F15
aF39.3905174
a(lp3839
Vauto
p3840
aVauto
p3841
aF0
aF0
aF1
aF1
aaa(lp3842
F30
aF39.3905174
a(lp3843
Vauto
p3844
aVauto
p3845
aF0
aF0
aF1
aF1
aaaaaaaaa(lp3846
S'pinky_finger_fk_ctrl_2_r'
p3847
a(lp3848
(lp3849
Na(lp3850
(lp3851
VtranslateX
p3852
a(lp3853
(lp3854
F0
aF0
a(lp3855
Vauto
p3856
aVauto
p3857
aF0
aF0
aF1
aF1
aaa(lp3858
F15
aF0
a(lp3859
Vauto
p3860
aVauto
p3861
aF0
aF0
aF1
aF1
aaa(lp3862
F30
aF0
a(lp3863
Vauto
p3864
aVauto
p3865
aF0
aF0
aF1
aF1
aaaaa(lp3866
VtranslateY
p3867
a(lp3868
(lp3869
F0
aF0
a(lp3870
Vauto
p3871
aVauto
p3872
aF0
aF0
aF1
aF1
aaa(lp3873
F15
aF0
a(lp3874
Vauto
p3875
aVauto
p3876
aF0
aF0
aF1
aF1
aaa(lp3877
F30
aF0
a(lp3878
Vauto
p3879
aVauto
p3880
aF0
aF0
aF1
aF1
aaaaa(lp3881
VtranslateZ
p3882
a(lp3883
(lp3884
F0
aF0
a(lp3885
Vauto
p3886
aVauto
p3887
aF0
aF0
aF1
aF1
aaa(lp3888
F15
aF0
a(lp3889
Vauto
p3890
aVauto
p3891
aF0
aF0
aF1
aF1
aaa(lp3892
F30
aF0
a(lp3893
Vauto
p3894
aVauto
p3895
aF0
aF0
aF1
aF1
aaaaa(lp3896
VrotateX
p3897
a(lp3898
(lp3899
F0
aF0
a(lp3900
Vauto
p3901
aVauto
p3902
aF0
aF0
aF1
aF1
aaa(lp3903
F15
aF0
a(lp3904
Vauto
p3905
aVauto
p3906
aF0
aF0
aF1
aF1
aaa(lp3907
F30
aF0
a(lp3908
Vauto
p3909
aVauto
p3910
aF0
aF0
aF1
aF1
aaaaa(lp3911
VrotateY
p3912
a(lp3913
(lp3914
F0
aF0
a(lp3915
Vauto
p3916
aVauto
p3917
aF0
aF0
aF1
aF1
aaa(lp3918
F15
aF0
a(lp3919
Vauto
p3920
aVauto
p3921
aF0
aF0
aF1
aF1
aaa(lp3922
F30
aF0
a(lp3923
Vauto
p3924
aVauto
p3925
aF0
aF0
aF1
aF1
aaaaa(lp3926
VrotateZ
p3927
a(lp3928
(lp3929
F0
aF39.3905174
a(lp3930
Vauto
p3931
aVauto
p3932
aF0
aF0
aF1
aF1
aaa(lp3933
F15
aF39.3905174
a(lp3934
Vauto
p3935
aVauto
p3936
aF0
aF0
aF1
aF1
aaa(lp3937
F30
aF39.3905174
a(lp3938
Vauto
p3939
aVauto
p3940
aF0
aF0
aF1
aF1
aaaaaaaaa(lp3941
S'pinky_finger_fk_ctrl_3_l'
p3942
a(lp3943
(lp3944
Na(lp3945
(lp3946
VtranslateX
p3947
a(lp3948
(lp3949
F0
aF0
a(lp3950
Vauto
p3951
aVauto
p3952
aF0
aF0
aF1
aF1
aaa(lp3953
F15
aF0
a(lp3954
Vauto
p3955
aVauto
p3956
aF0
aF0
aF1
aF1
aaa(lp3957
F30
aF0
a(lp3958
Vauto
p3959
aVauto
p3960
aF0
aF0
aF1
aF1
aaaaa(lp3961
VtranslateY
p3962
a(lp3963
(lp3964
F0
aF0
a(lp3965
Vauto
p3966
aVauto
p3967
aF0
aF0
aF1
aF1
aaa(lp3968
F15
aF0
a(lp3969
Vauto
p3970
aVauto
p3971
aF0
aF0
aF1
aF1
aaa(lp3972
F30
aF0
a(lp3973
Vauto
p3974
aVauto
p3975
aF0
aF0
aF1
aF1
aaaaa(lp3976
VtranslateZ
p3977
a(lp3978
(lp3979
F0
aF0
a(lp3980
Vauto
p3981
aVauto
p3982
aF0
aF0
aF1
aF1
aaa(lp3983
F15
aF0
a(lp3984
Vauto
p3985
aVauto
p3986
aF0
aF0
aF1
aF1
aaa(lp3987
F30
aF0
a(lp3988
Vauto
p3989
aVauto
p3990
aF0
aF0
aF1
aF1
aaaaa(lp3991
VrotateX
p3992
a(lp3993
(lp3994
F0
aF0
a(lp3995
Vauto
p3996
aVauto
p3997
aF0
aF0
aF1
aF1
aaa(lp3998
F15
aF0
a(lp3999
Vauto
p4000
aVauto
p4001
aF0
aF0
aF1
aF1
aaa(lp4002
F30
aF0
a(lp4003
Vauto
p4004
aVauto
p4005
aF0
aF0
aF1
aF1
aaaaa(lp4006
VrotateY
p4007
a(lp4008
(lp4009
F0
aF0
a(lp4010
Vauto
p4011
aVauto
p4012
aF0
aF0
aF1
aF1
aaa(lp4013
F15
aF0
a(lp4014
Vauto
p4015
aVauto
p4016
aF0
aF0
aF1
aF1
aaa(lp4017
F30
aF0
a(lp4018
Vauto
p4019
aVauto
p4020
aF0
aF0
aF1
aF1
aaaaa(lp4021
VrotateZ
p4022
a(lp4023
(lp4024
F0
aF12.804350980000001
a(lp4025
Vauto
p4026
aVauto
p4027
aF0
aF0
aF1
aF1
aaa(lp4028
F15
aF12.804350980000001
a(lp4029
Vauto
p4030
aVauto
p4031
aF0
aF0
aF1
aF1
aaa(lp4032
F30
aF12.804350980000001
a(lp4033
Vauto
p4034
aVauto
p4035
aF0
aF0
aF1
aF1
aaaaaaaaa(lp4036
S'pinky_finger_fk_ctrl_3_r'
p4037
a(lp4038
(lp4039
Na(lp4040
(lp4041
VtranslateX
p4042
a(lp4043
(lp4044
F0
aF0
a(lp4045
Vauto
p4046
aVauto
p4047
aF0
aF0
aF1
aF1
aaa(lp4048
F15
aF0
a(lp4049
Vauto
p4050
aVauto
p4051
aF0
aF0
aF1
aF1
aaa(lp4052
F30
aF0
a(lp4053
Vauto
p4054
aVauto
p4055
aF0
aF0
aF1
aF1
aaaaa(lp4056
VtranslateY
p4057
a(lp4058
(lp4059
F0
aF0
a(lp4060
Vauto
p4061
aVauto
p4062
aF0
aF0
aF1
aF1
aaa(lp4063
F15
aF0
a(lp4064
Vauto
p4065
aVauto
p4066
aF0
aF0
aF1
aF1
aaa(lp4067
F30
aF0
a(lp4068
Vauto
p4069
aVauto
p4070
aF0
aF0
aF1
aF1
aaaaa(lp4071
VtranslateZ
p4072
a(lp4073
(lp4074
F0
aF0
a(lp4075
Vauto
p4076
aVauto
p4077
aF0
aF0
aF1
aF1
aaa(lp4078
F15
aF0
a(lp4079
Vauto
p4080
aVauto
p4081
aF0
aF0
aF1
aF1
aaa(lp4082
F30
aF0
a(lp4083
Vauto
p4084
aVauto
p4085
aF0
aF0
aF1
aF1
aaaaa(lp4086
VrotateX
p4087
a(lp4088
(lp4089
F0
aF0
a(lp4090
Vauto
p4091
aVauto
p4092
aF0
aF0
aF1
aF1
aaa(lp4093
F15
aF0
a(lp4094
Vauto
p4095
aVauto
p4096
aF0
aF0
aF1
aF1
aaa(lp4097
F30
aF0
a(lp4098
Vauto
p4099
aVauto
p4100
aF0
aF0
aF1
aF1
aaaaa(lp4101
VrotateY
p4102
a(lp4103
(lp4104
F0
aF0
a(lp4105
Vauto
p4106
aVauto
p4107
aF0
aF0
aF1
aF1
aaa(lp4108
F15
aF0
a(lp4109
Vauto
p4110
aVauto
p4111
aF0
aF0
aF1
aF1
aaa(lp4112
F30
aF0
a(lp4113
Vauto
p4114
aVauto
p4115
aF0
aF0
aF1
aF1
aaaaa(lp4116
VrotateZ
p4117
a(lp4118
(lp4119
F0
aF12.804350980000001
a(lp4120
Vauto
p4121
aVauto
p4122
aF0
aF0
aF1
aF1
aaa(lp4123
F15
aF12.804350980000001
a(lp4124
Vauto
p4125
aVauto
p4126
aF0
aF0
aF1
aF1
aaa(lp4127
F30
aF12.804350980000001
a(lp4128
Vauto
p4129
aVauto
p4130
aF0
aF0
aF1
aF1
aaaaaaaaa(lp4131
S'ring_metacarpal_ctrl_l'
p4132
a(lp4133
(lp4134
Na(lp4135
(lp4136
VrotateX
p4137
a(lp4138
(lp4139
F0
aF0
a(lp4140
Vauto
p4141
aVauto
p4142
aF0
aF0
aF1
aF1
aaa(lp4143
F15
aF0
a(lp4144
Vauto
p4145
aVauto
p4146
aF0
aF0
aF1
aF1
aaa(lp4147
F30
aF0
a(lp4148
Vauto
p4149
aVauto
p4150
aF0
aF0
aF1
aF1
aaaaa(lp4151
VrotateY
p4152
a(lp4153
(lp4154
F0
aF0
a(lp4155
Vauto
p4156
aVauto
p4157
aF0
aF0
aF1
aF1
aaa(lp4158
F15
aF0
a(lp4159
Vauto
p4160
aVauto
p4161
aF0
aF0
aF1
aF1
aaa(lp4162
F30
aF0
a(lp4163
Vauto
p4164
aVauto
p4165
aF0
aF0
aF1
aF1
aaaaa(lp4166
VrotateZ
p4167
a(lp4168
(lp4169
F0
aF0
a(lp4170
Vauto
p4171
aVauto
p4172
aF0
aF0
aF1
aF1
aaa(lp4173
F15
aF0
a(lp4174
Vauto
p4175
aVauto
p4176
aF0
aF0
aF1
aF1
aaa(lp4177
F30
aF0
a(lp4178
Vauto
p4179
aVauto
p4180
aF0
aF0
aF1
aF1
aaaaaaaaa(lp4181
S'ring_metacarpal_ctrl_r'
p4182
a(lp4183
(lp4184
Na(lp4185
(lp4186
VrotateX
p4187
a(lp4188
(lp4189
F0
aF0
a(lp4190
Vauto
p4191
aVauto
p4192
aF0
aF0
aF1
aF1
aaa(lp4193
F15
aF0
a(lp4194
Vauto
p4195
aVauto
p4196
aF0
aF0
aF1
aF1
aaa(lp4197
F30
aF0
a(lp4198
Vauto
p4199
aVauto
p4200
aF0
aF0
aF1
aF1
aaaaa(lp4201
VrotateY
p4202
a(lp4203
(lp4204
F0
aF0
a(lp4205
Vauto
p4206
aVauto
p4207
aF0
aF0
aF1
aF1
aaa(lp4208
F15
aF0
a(lp4209
Vauto
p4210
aVauto
p4211
aF0
aF0
aF1
aF1
aaa(lp4212
F30
aF0
a(lp4213
Vauto
p4214
aVauto
p4215
aF0
aF0
aF1
aF1
aaaaa(lp4216
VrotateZ
p4217
a(lp4218
(lp4219
F0
aF0
a(lp4220
Vauto
p4221
aVauto
p4222
aF0
aF0
aF1
aF1
aaa(lp4223
F15
aF0
a(lp4224
Vauto
p4225
aVauto
p4226
aF0
aF0
aF1
aF1
aaa(lp4227
F30
aF0
a(lp4228
Vauto
p4229
aVauto
p4230
aF0
aF0
aF1
aF1
aaaaaaaaa(lp4231
S'ring_finger_fk_ctrl_1_l'
p4232
a(lp4233
(lp4234
Na(lp4235
(lp4236
VtranslateX
p4237
a(lp4238
(lp4239
F0
aF0
a(lp4240
Vauto
p4241
aVauto
p4242
aF0
aF0
aF1
aF1
aaa(lp4243
F15
aF0
a(lp4244
Vauto
p4245
aVauto
p4246
aF0
aF0
aF1
aF1
aaa(lp4247
F30
aF0
a(lp4248
Vauto
p4249
aVauto
p4250
aF0
aF0
aF1
aF1
aaaaa(lp4251
VtranslateY
p4252
a(lp4253
(lp4254
F0
aF0
a(lp4255
Vauto
p4256
aVauto
p4257
aF0
aF0
aF1
aF1
aaa(lp4258
F15
aF0
a(lp4259
Vauto
p4260
aVauto
p4261
aF0
aF0
aF1
aF1
aaa(lp4262
F30
aF0
a(lp4263
Vauto
p4264
aVauto
p4265
aF0
aF0
aF1
aF1
aaaaa(lp4266
VtranslateZ
p4267
a(lp4268
(lp4269
F0
aF0
a(lp4270
Vauto
p4271
aVauto
p4272
aF0
aF0
aF1
aF1
aaa(lp4273
F15
aF0
a(lp4274
Vauto
p4275
aVauto
p4276
aF0
aF0
aF1
aF1
aaa(lp4277
F30
aF0
a(lp4278
Vauto
p4279
aVauto
p4280
aF0
aF0
aF1
aF1
aaaaa(lp4281
VrotateX
p4282
a(lp4283
(lp4284
F0
aF0.12218283760000001
a(lp4285
Vauto
p4286
aVauto
p4287
aF0
aF0
aF1
aF1
aaa(lp4288
F15
aF0.12218283760000001
a(lp4289
Vauto
p4290
aVauto
p4291
aF0
aF0
aF1
aF1
aaa(lp4292
F30
aF0.12218283760000001
a(lp4293
Vauto
p4294
aVauto
p4295
aF0
aF0
aF1
aF1
aaaaa(lp4296
VrotateY
p4297
a(lp4298
(lp4299
F0
aF1.3051238380000001
a(lp4300
Vauto
p4301
aVauto
p4302
aF0
aF0
aF1
aF1
aaa(lp4303
F15
aF1.3051238380000001
a(lp4304
Vauto
p4305
aVauto
p4306
aF0
aF0
aF1
aF1
aaa(lp4307
F30
aF1.3051238380000001
a(lp4308
Vauto
p4309
aVauto
p4310
aF0
aF0
aF1
aF1
aaaaa(lp4311
VrotateZ
p4312
a(lp4313
(lp4314
F0
aF9.6923258879999992
a(lp4315
Vauto
p4316
aVauto
p4317
aF0
aF0
aF1
aF1
aaa(lp4318
F15
aF9.6923258879999992
a(lp4319
Vauto
p4320
aVauto
p4321
aF0
aF0
aF1
aF1
aaa(lp4322
F30
aF9.6923258879999992
a(lp4323
Vauto
p4324
aVauto
p4325
aF0
aF0
aF1
aF1
aaaaa(lp4326
Vsticky
p4327
a(lp4328
(lp4329
F0
aF0
a(lp4330
Vauto
p4331
aVauto
p4332
aF0
aF0
aF1
aF1
aaa(lp4333
F15
aF0
a(lp4334
Vauto
p4335
aVauto
p4336
aF0
aF0
aF1
aF1
aaa(lp4337
F30
aF0
a(lp4338
Vauto
p4339
aVauto
p4340
aF0
aF0
aF1
aF1
aaaaaaaaa(lp4341
S'ring_finger_fk_ctrl_1_r'
p4342
a(lp4343
(lp4344
Na(lp4345
(lp4346
VtranslateX
p4347
a(lp4348
(lp4349
F0
aF0
a(lp4350
Vauto
p4351
aVauto
p4352
aF0
aF0
aF1
aF1
aaa(lp4353
F15
aF0
a(lp4354
Vauto
p4355
aVauto
p4356
aF0
aF0
aF1
aF1
aaa(lp4357
F30
aF0
a(lp4358
Vauto
p4359
aVauto
p4360
aF0
aF0
aF1
aF1
aaaaa(lp4361
VtranslateY
p4362
a(lp4363
(lp4364
F0
aF0
a(lp4365
Vauto
p4366
aVauto
p4367
aF0
aF0
aF1
aF1
aaa(lp4368
F15
aF0
a(lp4369
Vauto
p4370
aVauto
p4371
aF0
aF0
aF1
aF1
aaa(lp4372
F30
aF0
a(lp4373
Vauto
p4374
aVauto
p4375
aF0
aF0
aF1
aF1
aaaaa(lp4376
VtranslateZ
p4377
a(lp4378
(lp4379
F0
aF0
a(lp4380
Vauto
p4381
aVauto
p4382
aF0
aF0
aF1
aF1
aaa(lp4383
F15
aF0
a(lp4384
Vauto
p4385
aVauto
p4386
aF0
aF0
aF1
aF1
aaa(lp4387
F30
aF0
a(lp4388
Vauto
p4389
aVauto
p4390
aF0
aF0
aF1
aF1
aaaaa(lp4391
VrotateX
p4392
a(lp4393
(lp4394
F0
aF0.12218283760000001
a(lp4395
Vauto
p4396
aVauto
p4397
aF0
aF0
aF1
aF1
aaa(lp4398
F15
aF0.12218283760000001
a(lp4399
Vauto
p4400
aVauto
p4401
aF0
aF0
aF1
aF1
aaa(lp4402
F30
aF0.12218283760000001
a(lp4403
Vauto
p4404
aVauto
p4405
aF0
aF0
aF1
aF1
aaaaa(lp4406
VrotateY
p4407
a(lp4408
(lp4409
F0
aF1.3051238380000001
a(lp4410
Vauto
p4411
aVauto
p4412
aF0
aF0
aF1
aF1
aaa(lp4413
F15
aF1.3051238380000001
a(lp4414
Vauto
p4415
aVauto
p4416
aF0
aF0
aF1
aF1
aaa(lp4417
F30
aF1.3051238380000001
a(lp4418
Vauto
p4419
aVauto
p4420
aF0
aF0
aF1
aF1
aaaaa(lp4421
VrotateZ
p4422
a(lp4423
(lp4424
F0
aF9.6923258879999992
a(lp4425
Vauto
p4426
aVauto
p4427
aF0
aF0
aF1
aF1
aaa(lp4428
F15
aF9.6923258879999992
a(lp4429
Vauto
p4430
aVauto
p4431
aF0
aF0
aF1
aF1
aaa(lp4432
F30
aF9.6923258879999992
a(lp4433
Vauto
p4434
aVauto
p4435
aF0
aF0
aF1
aF1
aaaaa(lp4436
Vsticky
p4437
a(lp4438
(lp4439
F0
aF0
a(lp4440
Vauto
p4441
aVauto
p4442
aF0
aF0
aF1
aF1
aaa(lp4443
F15
aF0
a(lp4444
Vauto
p4445
aVauto
p4446
aF0
aF0
aF1
aF1
aaa(lp4447
F30
aF0
a(lp4448
Vauto
p4449
aVauto
p4450
aF0
aF0
aF1
aF1
aaaaaaaaa(lp4451
S'ring_finger_fk_ctrl_2_l'
p4452
a(lp4453
(lp4454
Na(lp4455
(lp4456
VtranslateX
p4457
a(lp4458
(lp4459
F0
aF0
a(lp4460
Vauto
p4461
aVauto
p4462
aF0
aF0
aF1
aF1
aaa(lp4463
F15
aF0
a(lp4464
Vauto
p4465
aVauto
p4466
aF0
aF0
aF1
aF1
aaa(lp4467
F30
aF0
a(lp4468
Vauto
p4469
aVauto
p4470
aF0
aF0
aF1
aF1
aaaaa(lp4471
VtranslateY
p4472
a(lp4473
(lp4474
F0
aF0
a(lp4475
Vauto
p4476
aVauto
p4477
aF0
aF0
aF1
aF1
aaa(lp4478
F15
aF0
a(lp4479
Vauto
p4480
aVauto
p4481
aF0
aF0
aF1
aF1
aaa(lp4482
F30
aF0
a(lp4483
Vauto
p4484
aVauto
p4485
aF0
aF0
aF1
aF1
aaaaa(lp4486
VtranslateZ
p4487
a(lp4488
(lp4489
F0
aF0
a(lp4490
Vauto
p4491
aVauto
p4492
aF0
aF0
aF1
aF1
aaa(lp4493
F15
aF0
a(lp4494
Vauto
p4495
aVauto
p4496
aF0
aF0
aF1
aF1
aaa(lp4497
F30
aF0
a(lp4498
Vauto
p4499
aVauto
p4500
aF0
aF0
aF1
aF1
aaaaa(lp4501
VrotateX
p4502
a(lp4503
(lp4504
F0
aF0
a(lp4505
Vauto
p4506
aVauto
p4507
aF0
aF0
aF1
aF1
aaa(lp4508
F15
aF0
a(lp4509
Vauto
p4510
aVauto
p4511
aF0
aF0
aF1
aF1
aaa(lp4512
F30
aF0
a(lp4513
Vauto
p4514
aVauto
p4515
aF0
aF0
aF1
aF1
aaaaa(lp4516
VrotateY
p4517
a(lp4518
(lp4519
F0
aF0
a(lp4520
Vauto
p4521
aVauto
p4522
aF0
aF0
aF1
aF1
aaa(lp4523
F15
aF0
a(lp4524
Vauto
p4525
aVauto
p4526
aF0
aF0
aF1
aF1
aaa(lp4527
F30
aF0
a(lp4528
Vauto
p4529
aVauto
p4530
aF0
aF0
aF1
aF1
aaaaa(lp4531
VrotateZ
p4532
a(lp4533
(lp4534
F0
aF26.540039520000001
a(lp4535
Vauto
p4536
aVauto
p4537
aF0
aF0
aF1
aF1
aaa(lp4538
F15
aF26.540039520000001
a(lp4539
Vauto
p4540
aVauto
p4541
aF0
aF0
aF1
aF1
aaa(lp4542
F30
aF26.540039520000001
a(lp4543
Vauto
p4544
aVauto
p4545
aF0
aF0
aF1
aF1
aaaaaaaaa(lp4546
S'ring_finger_fk_ctrl_2_r'
p4547
a(lp4548
(lp4549
Na(lp4550
(lp4551
VtranslateX
p4552
a(lp4553
(lp4554
F0
aF0
a(lp4555
Vauto
p4556
aVauto
p4557
aF0
aF0
aF1
aF1
aaa(lp4558
F15
aF0
a(lp4559
Vauto
p4560
aVauto
p4561
aF0
aF0
aF1
aF1
aaa(lp4562
F30
aF0
a(lp4563
Vauto
p4564
aVauto
p4565
aF0
aF0
aF1
aF1
aaaaa(lp4566
VtranslateY
p4567
a(lp4568
(lp4569
F0
aF0
a(lp4570
Vauto
p4571
aVauto
p4572
aF0
aF0
aF1
aF1
aaa(lp4573
F15
aF0
a(lp4574
Vauto
p4575
aVauto
p4576
aF0
aF0
aF1
aF1
aaa(lp4577
F30
aF0
a(lp4578
Vauto
p4579
aVauto
p4580
aF0
aF0
aF1
aF1
aaaaa(lp4581
VtranslateZ
p4582
a(lp4583
(lp4584
F0
aF0
a(lp4585
Vauto
p4586
aVauto
p4587
aF0
aF0
aF1
aF1
aaa(lp4588
F15
aF0
a(lp4589
Vauto
p4590
aVauto
p4591
aF0
aF0
aF1
aF1
aaa(lp4592
F30
aF0
a(lp4593
Vauto
p4594
aVauto
p4595
aF0
aF0
aF1
aF1
aaaaa(lp4596
VrotateX
p4597
a(lp4598
(lp4599
F0
aF0
a(lp4600
Vauto
p4601
aVauto
p4602
aF0
aF0
aF1
aF1
aaa(lp4603
F15
aF0
a(lp4604
Vauto
p4605
aVauto
p4606
aF0
aF0
aF1
aF1
aaa(lp4607
F30
aF0
a(lp4608
Vauto
p4609
aVauto
p4610
aF0
aF0
aF1
aF1
aaaaa(lp4611
VrotateY
p4612
a(lp4613
(lp4614
F0
aF0
a(lp4615
Vauto
p4616
aVauto
p4617
aF0
aF0
aF1
aF1
aaa(lp4618
F15
aF0
a(lp4619
Vauto
p4620
aVauto
p4621
aF0
aF0
aF1
aF1
aaa(lp4622
F30
aF0
a(lp4623
Vauto
p4624
aVauto
p4625
aF0
aF0
aF1
aF1
aaaaa(lp4626
VrotateZ
p4627
a(lp4628
(lp4629
F0
aF26.540039520000001
a(lp4630
Vauto
p4631
aVauto
p4632
aF0
aF0
aF1
aF1
aaa(lp4633
F15
aF26.540039520000001
a(lp4634
Vauto
p4635
aVauto
p4636
aF0
aF0
aF1
aF1
aaa(lp4637
F30
aF26.540039520000001
a(lp4638
Vauto
p4639
aVauto
p4640
aF0
aF0
aF1
aF1
aaaaaaaaa(lp4641
S'ring_finger_fk_ctrl_3_l'
p4642
a(lp4643
(lp4644
Na(lp4645
(lp4646
VtranslateX
p4647
a(lp4648
(lp4649
F0
aF0
a(lp4650
Vauto
p4651
aVauto
p4652
aF0
aF0
aF1
aF1
aaa(lp4653
F15
aF0
a(lp4654
Vauto
p4655
aVauto
p4656
aF0
aF0
aF1
aF1
aaa(lp4657
F30
aF0
a(lp4658
Vauto
p4659
aVauto
p4660
aF0
aF0
aF1
aF1
aaaaa(lp4661
VtranslateY
p4662
a(lp4663
(lp4664
F0
aF0
a(lp4665
Vauto
p4666
aVauto
p4667
aF0
aF0
aF1
aF1
aaa(lp4668
F15
aF0
a(lp4669
Vauto
p4670
aVauto
p4671
aF0
aF0
aF1
aF1
aaa(lp4672
F30
aF0
a(lp4673
Vauto
p4674
aVauto
p4675
aF0
aF0
aF1
aF1
aaaaa(lp4676
VtranslateZ
p4677
a(lp4678
(lp4679
F0
aF0
a(lp4680
Vauto
p4681
aVauto
p4682
aF0
aF0
aF1
aF1
aaa(lp4683
F15
aF0
a(lp4684
Vauto
p4685
aVauto
p4686
aF0
aF0
aF1
aF1
aaa(lp4687
F30
aF0
a(lp4688
Vauto
p4689
aVauto
p4690
aF0
aF0
aF1
aF1
aaaaa(lp4691
VrotateX
p4692
a(lp4693
(lp4694
F0
aF0
a(lp4695
Vauto
p4696
aVauto
p4697
aF0
aF0
aF1
aF1
aaa(lp4698
F15
aF0
a(lp4699
Vauto
p4700
aVauto
p4701
aF0
aF0
aF1
aF1
aaa(lp4702
F30
aF0
a(lp4703
Vauto
p4704
aVauto
p4705
aF0
aF0
aF1
aF1
aaaaa(lp4706
VrotateY
p4707
a(lp4708
(lp4709
F0
aF0
a(lp4710
Vauto
p4711
aVauto
p4712
aF0
aF0
aF1
aF1
aaa(lp4713
F15
aF0
a(lp4714
Vauto
p4715
aVauto
p4716
aF0
aF0
aF1
aF1
aaa(lp4717
F30
aF0
a(lp4718
Vauto
p4719
aVauto
p4720
aF0
aF0
aF1
aF1
aaaaa(lp4721
VrotateZ
p4722
a(lp4723
(lp4724
F0
aF9.3836626360000004
a(lp4725
Vauto
p4726
aVauto
p4727
aF0
aF0
aF1
aF1
aaa(lp4728
F15
aF9.3836626360000004
a(lp4729
Vauto
p4730
aVauto
p4731
aF0
aF0
aF1
aF1
aaa(lp4732
F30
aF9.3836626360000004
a(lp4733
Vauto
p4734
aVauto
p4735
aF0
aF0
aF1
aF1
aaaaaaaaa(lp4736
S'ring_finger_fk_ctrl_3_r'
p4737
a(lp4738
(lp4739
Na(lp4740
(lp4741
VtranslateX
p4742
a(lp4743
(lp4744
F0
aF0
a(lp4745
Vauto
p4746
aVauto
p4747
aF0
aF0
aF1
aF1
aaa(lp4748
F15
aF0
a(lp4749
Vauto
p4750
aVauto
p4751
aF0
aF0
aF1
aF1
aaa(lp4752
F30
aF0
a(lp4753
Vauto
p4754
aVauto
p4755
aF0
aF0
aF1
aF1
aaaaa(lp4756
VtranslateY
p4757
a(lp4758
(lp4759
F0
aF0
a(lp4760
Vauto
p4761
aVauto
p4762
aF0
aF0
aF1
aF1
aaa(lp4763
F15
aF0
a(lp4764
Vauto
p4765
aVauto
p4766
aF0
aF0
aF1
aF1
aaa(lp4767
F30
aF0
a(lp4768
Vauto
p4769
aVauto
p4770
aF0
aF0
aF1
aF1
aaaaa(lp4771
VtranslateZ
p4772
a(lp4773
(lp4774
F0
aF0
a(lp4775
Vauto
p4776
aVauto
p4777
aF0
aF0
aF1
aF1
aaa(lp4778
F15
aF0
a(lp4779
Vauto
p4780
aVauto
p4781
aF0
aF0
aF1
aF1
aaa(lp4782
F30
aF0
a(lp4783
Vauto
p4784
aVauto
p4785
aF0
aF0
aF1
aF1
aaaaa(lp4786
VrotateX
p4787
a(lp4788
(lp4789
F0
aF0
a(lp4790
Vauto
p4791
aVauto
p4792
aF0
aF0
aF1
aF1
aaa(lp4793
F15
aF0
a(lp4794
Vauto
p4795
aVauto
p4796
aF0
aF0
aF1
aF1
aaa(lp4797
F30
aF0
a(lp4798
Vauto
p4799
aVauto
p4800
aF0
aF0
aF1
aF1
aaaaa(lp4801
VrotateY
p4802
a(lp4803
(lp4804
F0
aF0
a(lp4805
Vauto
p4806
aVauto
p4807
aF0
aF0
aF1
aF1
aaa(lp4808
F15
aF0
a(lp4809
Vauto
p4810
aVauto
p4811
aF0
aF0
aF1
aF1
aaa(lp4812
F30
aF0
a(lp4813
Vauto
p4814
aVauto
p4815
aF0
aF0
aF1
aF1
aaaaa(lp4816
VrotateZ
p4817
a(lp4818
(lp4819
F0
aF9.3836626360000004
a(lp4820
Vauto
p4821
aVauto
p4822
aF0
aF0
aF1
aF1
aaa(lp4823
F15
aF9.3836626360000004
a(lp4824
Vauto
p4825
aVauto
p4826
aF0
aF0
aF1
aF1
aaa(lp4827
F30
aF9.3836626360000004
a(lp4828
Vauto
p4829
aVauto
p4830
aF0
aF0
aF1
aF1
aaaaaaaaa(lp4831
S'middle_metacarpal_ctrl_l'
p4832
a(lp4833
(lp4834
Na(lp4835
(lp4836
VrotateX
p4837
a(lp4838
(lp4839
F0
aF0
a(lp4840
Vauto
p4841
aVauto
p4842
aF0
aF0
aF1
aF1
aaa(lp4843
F15
aF0
a(lp4844
Vauto
p4845
aVauto
p4846
aF0
aF0
aF1
aF1
aaa(lp4847
F30
aF0
a(lp4848
Vauto
p4849
aVauto
p4850
aF0
aF0
aF1
aF1
aaaaa(lp4851
VrotateY
p4852
a(lp4853
(lp4854
F0
aF0
a(lp4855
Vauto
p4856
aVauto
p4857
aF0
aF0
aF1
aF1
aaa(lp4858
F15
aF0
a(lp4859
Vauto
p4860
aVauto
p4861
aF0
aF0
aF1
aF1
aaa(lp4862
F30
aF0
a(lp4863
Vauto
p4864
aVauto
p4865
aF0
aF0
aF1
aF1
aaaaa(lp4866
VrotateZ
p4867
a(lp4868
(lp4869
F0
aF0
a(lp4870
Vauto
p4871
aVauto
p4872
aF0
aF0
aF1
aF1
aaa(lp4873
F15
aF0
a(lp4874
Vauto
p4875
aVauto
p4876
aF0
aF0
aF1
aF1
aaa(lp4877
F30
aF0
a(lp4878
Vauto
p4879
aVauto
p4880
aF0
aF0
aF1
aF1
aaaaaaaaa(lp4881
S'middle_metacarpal_ctrl_r'
p4882
a(lp4883
(lp4884
Na(lp4885
(lp4886
VrotateX
p4887
a(lp4888
(lp4889
F0
aF0
a(lp4890
Vauto
p4891
aVauto
p4892
aF0
aF0
aF1
aF1
aaa(lp4893
F15
aF0
a(lp4894
Vauto
p4895
aVauto
p4896
aF0
aF0
aF1
aF1
aaa(lp4897
F30
aF0
a(lp4898
Vauto
p4899
aVauto
p4900
aF0
aF0
aF1
aF1
aaaaa(lp4901
VrotateY
p4902
a(lp4903
(lp4904
F0
aF0
a(lp4905
Vauto
p4906
aVauto
p4907
aF0
aF0
aF1
aF1
aaa(lp4908
F15
aF0
a(lp4909
Vauto
p4910
aVauto
p4911
aF0
aF0
aF1
aF1
aaa(lp4912
F30
aF0
a(lp4913
Vauto
p4914
aVauto
p4915
aF0
aF0
aF1
aF1
aaaaa(lp4916
VrotateZ
p4917
a(lp4918
(lp4919
F0
aF0
a(lp4920
Vauto
p4921
aVauto
p4922
aF0
aF0
aF1
aF1
aaa(lp4923
F15
aF0
a(lp4924
Vauto
p4925
aVauto
p4926
aF0
aF0
aF1
aF1
aaa(lp4927
F30
aF0
a(lp4928
Vauto
p4929
aVauto
p4930
aF0
aF0
aF1
aF1
aaaaaaaaa(lp4931
S'middle_finger_fk_ctrl_1_l'
p4932
a(lp4933
(lp4934
Na(lp4935
(lp4936
VtranslateX
p4937
a(lp4938
(lp4939
F0
aF0
a(lp4940
Vauto
p4941
aVauto
p4942
aF0
aF0
aF1
aF1
aaa(lp4943
F15
aF0
a(lp4944
Vauto
p4945
aVauto
p4946
aF0
aF0
aF1
aF1
aaa(lp4947
F30
aF0
a(lp4948
Vauto
p4949
aVauto
p4950
aF0
aF0
aF1
aF1
aaaaa(lp4951
VtranslateY
p4952
a(lp4953
(lp4954
F0
aF0
a(lp4955
Vauto
p4956
aVauto
p4957
aF0
aF0
aF1
aF1
aaa(lp4958
F15
aF0
a(lp4959
Vauto
p4960
aVauto
p4961
aF0
aF0
aF1
aF1
aaa(lp4962
F30
aF0
a(lp4963
Vauto
p4964
aVauto
p4965
aF0
aF0
aF1
aF1
aaaaa(lp4966
VtranslateZ
p4967
a(lp4968
(lp4969
F0
aF0
a(lp4970
Vauto
p4971
aVauto
p4972
aF0
aF0
aF1
aF1
aaa(lp4973
F15
aF0
a(lp4974
Vauto
p4975
aVauto
p4976
aF0
aF0
aF1
aF1
aaa(lp4977
F30
aF0
a(lp4978
Vauto
p4979
aVauto
p4980
aF0
aF0
aF1
aF1
aaaaa(lp4981
VrotateX
p4982
a(lp4983
(lp4984
F0
aF0
a(lp4985
Vauto
p4986
aVauto
p4987
aF0
aF0
aF1
aF1
aaa(lp4988
F15
aF0
a(lp4989
Vauto
p4990
aVauto
p4991
aF0
aF0
aF1
aF1
aaa(lp4992
F30
aF0
a(lp4993
Vauto
p4994
aVauto
p4995
aF0
aF0
aF1
aF1
aaaaa(lp4996
VrotateY
p4997
a(lp4998
(lp4999
F0
aF0
a(lp5000
Vauto
p5001
aVauto
p5002
aF0
aF0
aF1
aF1
aaa(lp5003
F15
aF0
a(lp5004
Vauto
p5005
aVauto
p5006
aF0
aF0
aF1
aF1
aaa(lp5007
F30
aF0
a(lp5008
Vauto
p5009
aVauto
p5010
aF0
aF0
aF1
aF1
aaaaa(lp5011
VrotateZ
p5012
a(lp5013
(lp5014
F0
aF1.42494476
a(lp5015
Vauto
p5016
aVauto
p5017
aF0
aF0
aF1
aF1
aaa(lp5018
F15
aF1.42494476
a(lp5019
Vauto
p5020
aVauto
p5021
aF0
aF0
aF1
aF1
aaa(lp5022
F30
aF1.42494476
a(lp5023
Vauto
p5024
aVauto
p5025
aF0
aF0
aF1
aF1
aaaaa(lp5026
Vsticky
p5027
a(lp5028
(lp5029
F0
aF0
a(lp5030
Vauto
p5031
aVauto
p5032
aF0
aF0
aF1
aF1
aaa(lp5033
F15
aF0
a(lp5034
Vauto
p5035
aVauto
p5036
aF0
aF0
aF1
aF1
aaa(lp5037
F30
aF0
a(lp5038
Vauto
p5039
aVauto
p5040
aF0
aF0
aF1
aF1
aaaaaaaaa(lp5041
S'middle_finger_fk_ctrl_1_r'
p5042
a(lp5043
(lp5044
Na(lp5045
(lp5046
VtranslateX
p5047
a(lp5048
(lp5049
F0
aF0
a(lp5050
Vauto
p5051
aVauto
p5052
aF0
aF0
aF1
aF1
aaa(lp5053
F15
aF0
a(lp5054
Vauto
p5055
aVauto
p5056
aF0
aF0
aF1
aF1
aaa(lp5057
F30
aF0
a(lp5058
Vauto
p5059
aVauto
p5060
aF0
aF0
aF1
aF1
aaaaa(lp5061
VtranslateY
p5062
a(lp5063
(lp5064
F0
aF0
a(lp5065
Vauto
p5066
aVauto
p5067
aF0
aF0
aF1
aF1
aaa(lp5068
F15
aF0
a(lp5069
Vauto
p5070
aVauto
p5071
aF0
aF0
aF1
aF1
aaa(lp5072
F30
aF0
a(lp5073
Vauto
p5074
aVauto
p5075
aF0
aF0
aF1
aF1
aaaaa(lp5076
VtranslateZ
p5077
a(lp5078
(lp5079
F0
aF0
a(lp5080
Vauto
p5081
aVauto
p5082
aF0
aF0
aF1
aF1
aaa(lp5083
F15
aF0
a(lp5084
Vauto
p5085
aVauto
p5086
aF0
aF0
aF1
aF1
aaa(lp5087
F30
aF0
a(lp5088
Vauto
p5089
aVauto
p5090
aF0
aF0
aF1
aF1
aaaaa(lp5091
VrotateX
p5092
a(lp5093
(lp5094
F0
aF0
a(lp5095
Vauto
p5096
aVauto
p5097
aF0
aF0
aF1
aF1
aaa(lp5098
F15
aF0
a(lp5099
Vauto
p5100
aVauto
p5101
aF0
aF0
aF1
aF1
aaa(lp5102
F30
aF0
a(lp5103
Vauto
p5104
aVauto
p5105
aF0
aF0
aF1
aF1
aaaaa(lp5106
VrotateY
p5107
a(lp5108
(lp5109
F0
aF0
a(lp5110
Vauto
p5111
aVauto
p5112
aF0
aF0
aF1
aF1
aaa(lp5113
F15
aF0
a(lp5114
Vauto
p5115
aVauto
p5116
aF0
aF0
aF1
aF1
aaa(lp5117
F30
aF0
a(lp5118
Vauto
p5119
aVauto
p5120
aF0
aF0
aF1
aF1
aaaaa(lp5121
VrotateZ
p5122
a(lp5123
(lp5124
F0
aF1.42494476
a(lp5125
Vauto
p5126
aVauto
p5127
aF0
aF0
aF1
aF1
aaa(lp5128
F15
aF1.42494476
a(lp5129
Vauto
p5130
aVauto
p5131
aF0
aF0
aF1
aF1
aaa(lp5132
F30
aF1.42494476
a(lp5133
Vauto
p5134
aVauto
p5135
aF0
aF0
aF1
aF1
aaaaa(lp5136
Vsticky
p5137
a(lp5138
(lp5139
F0
aF0
a(lp5140
Vauto
p5141
aVauto
p5142
aF0
aF0
aF1
aF1
aaa(lp5143
F15
aF0
a(lp5144
Vauto
p5145
aVauto
p5146
aF0
aF0
aF1
aF1
aaa(lp5147
F30
aF0
a(lp5148
Vauto
p5149
aVauto
p5150
aF0
aF0
aF1
aF1
aaaaaaaaa(lp5151
S'middle_finger_fk_ctrl_2_l'
p5152
a(lp5153
(lp5154
Na(lp5155
(lp5156
VtranslateX
p5157
a(lp5158
(lp5159
F0
aF0
a(lp5160
Vauto
p5161
aVauto
p5162
aF0
aF0
aF1
aF1
aaa(lp5163
F15
aF0
a(lp5164
Vauto
p5165
aVauto
p5166
aF0
aF0
aF1
aF1
aaa(lp5167
F30
aF0
a(lp5168
Vauto
p5169
aVauto
p5170
aF0
aF0
aF1
aF1
aaaaa(lp5171
VtranslateY
p5172
a(lp5173
(lp5174
F0
aF0
a(lp5175
Vauto
p5176
aVauto
p5177
aF0
aF0
aF1
aF1
aaa(lp5178
F15
aF0
a(lp5179
Vauto
p5180
aVauto
p5181
aF0
aF0
aF1
aF1
aaa(lp5182
F30
aF0
a(lp5183
Vauto
p5184
aVauto
p5185
aF0
aF0
aF1
aF1
aaaaa(lp5186
VtranslateZ
p5187
a(lp5188
(lp5189
F0
aF0
a(lp5190
Vauto
p5191
aVauto
p5192
aF0
aF0
aF1
aF1
aaa(lp5193
F15
aF0
a(lp5194
Vauto
p5195
aVauto
p5196
aF0
aF0
aF1
aF1
aaa(lp5197
F30
aF0
a(lp5198
Vauto
p5199
aVauto
p5200
aF0
aF0
aF1
aF1
aaaaa(lp5201
VrotateX
p5202
a(lp5203
(lp5204
F0
aF0
a(lp5205
Vauto
p5206
aVauto
p5207
aF0
aF0
aF1
aF1
aaa(lp5208
F15
aF0
a(lp5209
Vauto
p5210
aVauto
p5211
aF0
aF0
aF1
aF1
aaa(lp5212
F30
aF0
a(lp5213
Vauto
p5214
aVauto
p5215
aF0
aF0
aF1
aF1
aaaaa(lp5216
VrotateY
p5217
a(lp5218
(lp5219
F0
aF0
a(lp5220
Vauto
p5221
aVauto
p5222
aF0
aF0
aF1
aF1
aaa(lp5223
F15
aF0
a(lp5224
Vauto
p5225
aVauto
p5226
aF0
aF0
aF1
aF1
aaa(lp5227
F30
aF0
a(lp5228
Vauto
p5229
aVauto
p5230
aF0
aF0
aF1
aF1
aaaaa(lp5231
VrotateZ
p5232
a(lp5233
(lp5234
F0
aF13.07013151
a(lp5235
Vauto
p5236
aVauto
p5237
aF0
aF0
aF1
aF1
aaa(lp5238
F15
aF13.07013151
a(lp5239
Vauto
p5240
aVauto
p5241
aF0
aF0
aF1
aF1
aaa(lp5242
F30
aF13.07013151
a(lp5243
Vauto
p5244
aVauto
p5245
aF0
aF0
aF1
aF1
aaaaaaaaa(lp5246
S'middle_finger_fk_ctrl_2_r'
p5247
a(lp5248
(lp5249
Na(lp5250
(lp5251
VtranslateX
p5252
a(lp5253
(lp5254
F0
aF0
a(lp5255
Vauto
p5256
aVauto
p5257
aF0
aF0
aF1
aF1
aaa(lp5258
F15
aF0
a(lp5259
Vauto
p5260
aVauto
p5261
aF0
aF0
aF1
aF1
aaa(lp5262
F30
aF0
a(lp5263
Vauto
p5264
aVauto
p5265
aF0
aF0
aF1
aF1
aaaaa(lp5266
VtranslateY
p5267
a(lp5268
(lp5269
F0
aF0
a(lp5270
Vauto
p5271
aVauto
p5272
aF0
aF0
aF1
aF1
aaa(lp5273
F15
aF0
a(lp5274
Vauto
p5275
aVauto
p5276
aF0
aF0
aF1
aF1
aaa(lp5277
F30
aF0
a(lp5278
Vauto
p5279
aVauto
p5280
aF0
aF0
aF1
aF1
aaaaa(lp5281
VtranslateZ
p5282
a(lp5283
(lp5284
F0
aF0
a(lp5285
Vauto
p5286
aVauto
p5287
aF0
aF0
aF1
aF1
aaa(lp5288
F15
aF0
a(lp5289
Vauto
p5290
aVauto
p5291
aF0
aF0
aF1
aF1
aaa(lp5292
F30
aF0
a(lp5293
Vauto
p5294
aVauto
p5295
aF0
aF0
aF1
aF1
aaaaa(lp5296
VrotateX
p5297
a(lp5298
(lp5299
F0
aF0
a(lp5300
Vauto
p5301
aVauto
p5302
aF0
aF0
aF1
aF1
aaa(lp5303
F15
aF0
a(lp5304
Vauto
p5305
aVauto
p5306
aF0
aF0
aF1
aF1
aaa(lp5307
F30
aF0
a(lp5308
Vauto
p5309
aVauto
p5310
aF0
aF0
aF1
aF1
aaaaa(lp5311
VrotateY
p5312
a(lp5313
(lp5314
F0
aF0
a(lp5315
Vauto
p5316
aVauto
p5317
aF0
aF0
aF1
aF1
aaa(lp5318
F15
aF0
a(lp5319
Vauto
p5320
aVauto
p5321
aF0
aF0
aF1
aF1
aaa(lp5322
F30
aF0
a(lp5323
Vauto
p5324
aVauto
p5325
aF0
aF0
aF1
aF1
aaaaa(lp5326
VrotateZ
p5327
a(lp5328
(lp5329
F0
aF13.07013151
a(lp5330
Vauto
p5331
aVauto
p5332
aF0
aF0
aF1
aF1
aaa(lp5333
F15
aF13.07013151
a(lp5334
Vauto
p5335
aVauto
p5336
aF0
aF0
aF1
aF1
aaa(lp5337
F30
aF13.07013151
a(lp5338
Vauto
p5339
aVauto
p5340
aF0
aF0
aF1
aF1
aaaaaaaaa(lp5341
S'middle_finger_fk_ctrl_3_l'
p5342
a(lp5343
(lp5344
Na(lp5345
(lp5346
VtranslateX
p5347
a(lp5348
(lp5349
F0
aF0
a(lp5350
Vauto
p5351
aVauto
p5352
aF0
aF0
aF1
aF1
aaa(lp5353
F15
aF0
a(lp5354
Vauto
p5355
aVauto
p5356
aF0
aF0
aF1
aF1
aaa(lp5357
F30
aF0
a(lp5358
Vauto
p5359
aVauto
p5360
aF0
aF0
aF1
aF1
aaaaa(lp5361
VtranslateY
p5362
a(lp5363
(lp5364
F0
aF0
a(lp5365
Vauto
p5366
aVauto
p5367
aF0
aF0
aF1
aF1
aaa(lp5368
F15
aF0
a(lp5369
Vauto
p5370
aVauto
p5371
aF0
aF0
aF1
aF1
aaa(lp5372
F30
aF0
a(lp5373
Vauto
p5374
aVauto
p5375
aF0
aF0
aF1
aF1
aaaaa(lp5376
VtranslateZ
p5377
a(lp5378
(lp5379
F0
aF0
a(lp5380
Vauto
p5381
aVauto
p5382
aF0
aF0
aF1
aF1
aaa(lp5383
F15
aF0
a(lp5384
Vauto
p5385
aVauto
p5386
aF0
aF0
aF1
aF1
aaa(lp5387
F30
aF0
a(lp5388
Vauto
p5389
aVauto
p5390
aF0
aF0
aF1
aF1
aaaaa(lp5391
VrotateX
p5392
a(lp5393
(lp5394
F0
aF0
a(lp5395
Vauto
p5396
aVauto
p5397
aF0
aF0
aF1
aF1
aaa(lp5398
F15
aF0
a(lp5399
Vauto
p5400
aVauto
p5401
aF0
aF0
aF1
aF1
aaa(lp5402
F30
aF0
a(lp5403
Vauto
p5404
aVauto
p5405
aF0
aF0
aF1
aF1
aaaaa(lp5406
VrotateY
p5407
a(lp5408
(lp5409
F0
aF0
a(lp5410
Vauto
p5411
aVauto
p5412
aF0
aF0
aF1
aF1
aaa(lp5413
F15
aF0
a(lp5414
Vauto
p5415
aVauto
p5416
aF0
aF0
aF1
aF1
aaa(lp5417
F30
aF0
a(lp5418
Vauto
p5419
aVauto
p5420
aF0
aF0
aF1
aF1
aaaaa(lp5421
VrotateZ
p5422
a(lp5423
(lp5424
F0
aF11.9622385
a(lp5425
Vauto
p5426
aVauto
p5427
aF0
aF0
aF1
aF1
aaa(lp5428
F15
aF11.9622385
a(lp5429
Vauto
p5430
aVauto
p5431
aF0
aF0
aF1
aF1
aaa(lp5432
F30
aF11.9622385
a(lp5433
Vauto
p5434
aVauto
p5435
aF0
aF0
aF1
aF1
aaaaaaaaa(lp5436
S'middle_finger_fk_ctrl_3_r'
p5437
a(lp5438
(lp5439
Na(lp5440
(lp5441
VtranslateX
p5442
a(lp5443
(lp5444
F0
aF0
a(lp5445
Vauto
p5446
aVauto
p5447
aF0
aF0
aF1
aF1
aaa(lp5448
F15
aF0
a(lp5449
Vauto
p5450
aVauto
p5451
aF0
aF0
aF1
aF1
aaa(lp5452
F30
aF0
a(lp5453
Vauto
p5454
aVauto
p5455
aF0
aF0
aF1
aF1
aaaaa(lp5456
VtranslateY
p5457
a(lp5458
(lp5459
F0
aF0
a(lp5460
Vauto
p5461
aVauto
p5462
aF0
aF0
aF1
aF1
aaa(lp5463
F15
aF0
a(lp5464
Vauto
p5465
aVauto
p5466
aF0
aF0
aF1
aF1
aaa(lp5467
F30
aF0
a(lp5468
Vauto
p5469
aVauto
p5470
aF0
aF0
aF1
aF1
aaaaa(lp5471
VtranslateZ
p5472
a(lp5473
(lp5474
F0
aF0
a(lp5475
Vauto
p5476
aVauto
p5477
aF0
aF0
aF1
aF1
aaa(lp5478
F15
aF0
a(lp5479
Vauto
p5480
aVauto
p5481
aF0
aF0
aF1
aF1
aaa(lp5482
F30
aF0
a(lp5483
Vauto
p5484
aVauto
p5485
aF0
aF0
aF1
aF1
aaaaa(lp5486
VrotateX
p5487
a(lp5488
(lp5489
F0
aF0
a(lp5490
Vauto
p5491
aVauto
p5492
aF0
aF0
aF1
aF1
aaa(lp5493
F15
aF0
a(lp5494
Vauto
p5495
aVauto
p5496
aF0
aF0
aF1
aF1
aaa(lp5497
F30
aF0
a(lp5498
Vauto
p5499
aVauto
p5500
aF0
aF0
aF1
aF1
aaaaa(lp5501
VrotateY
p5502
a(lp5503
(lp5504
F0
aF0
a(lp5505
Vauto
p5506
aVauto
p5507
aF0
aF0
aF1
aF1
aaa(lp5508
F15
aF0
a(lp5509
Vauto
p5510
aVauto
p5511
aF0
aF0
aF1
aF1
aaa(lp5512
F30
aF0
a(lp5513
Vauto
p5514
aVauto
p5515
aF0
aF0
aF1
aF1
aaaaa(lp5516
VrotateZ
p5517
a(lp5518
(lp5519
F0
aF11.9622385
a(lp5520
Vauto
p5521
aVauto
p5522
aF0
aF0
aF1
aF1
aaa(lp5523
F15
aF11.9622385
a(lp5524
Vauto
p5525
aVauto
p5526
aF0
aF0
aF1
aF1
aaa(lp5527
F30
aF11.9622385
a(lp5528
Vauto
p5529
aVauto
p5530
aF0
aF0
aF1
aF1
aaaaaaaaa(lp5531
S'index_metacarpal_ctrl_l'
p5532
a(lp5533
(lp5534
Na(lp5535
(lp5536
VrotateX
p5537
a(lp5538
(lp5539
F0
aF0
a(lp5540
Vauto
p5541
aVauto
p5542
aF0
aF0
aF1
aF1
aaa(lp5543
F15
aF0
a(lp5544
Vauto
p5545
aVauto
p5546
aF0
aF0
aF1
aF1
aaa(lp5547
F30
aF0
a(lp5548
Vauto
p5549
aVauto
p5550
aF0
aF0
aF1
aF1
aaaaa(lp5551
VrotateY
p5552
a(lp5553
(lp5554
F0
aF-0.39898574399999998
a(lp5555
Vauto
p5556
aVauto
p5557
aF0
aF0
aF1
aF1
aaa(lp5558
F15
aF-0.39898574399999998
a(lp5559
Vauto
p5560
aVauto
p5561
aF0
aF0
aF1
aF1
aaa(lp5562
F30
aF-0.39898574399999998
a(lp5563
Vauto
p5564
aVauto
p5565
aF0
aF0
aF1
aF1
aaaaa(lp5566
VrotateZ
p5567
a(lp5568
(lp5569
F0
aF0
a(lp5570
Vauto
p5571
aVauto
p5572
aF0
aF0
aF1
aF1
aaa(lp5573
F15
aF0
a(lp5574
Vauto
p5575
aVauto
p5576
aF0
aF0
aF1
aF1
aaa(lp5577
F30
aF0
a(lp5578
Vauto
p5579
aVauto
p5580
aF0
aF0
aF1
aF1
aaaaaaaaa(lp5581
S'index_metacarpal_ctrl_r'
p5582
a(lp5583
(lp5584
Na(lp5585
(lp5586
VrotateX
p5587
a(lp5588
(lp5589
F0
aF0
a(lp5590
Vauto
p5591
aVauto
p5592
aF0
aF0
aF1
aF1
aaa(lp5593
F15
aF0
a(lp5594
Vauto
p5595
aVauto
p5596
aF0
aF0
aF1
aF1
aaa(lp5597
F30
aF0
a(lp5598
Vauto
p5599
aVauto
p5600
aF0
aF0
aF1
aF1
aaaaa(lp5601
VrotateY
p5602
a(lp5603
(lp5604
F0
aF-0.39898574399999998
a(lp5605
Vauto
p5606
aVauto
p5607
aF0
aF0
aF1
aF1
aaa(lp5608
F15
aF-0.39898574399999998
a(lp5609
Vauto
p5610
aVauto
p5611
aF0
aF0
aF1
aF1
aaa(lp5612
F30
aF-0.39898574399999998
a(lp5613
Vauto
p5614
aVauto
p5615
aF0
aF0
aF1
aF1
aaaaa(lp5616
VrotateZ
p5617
a(lp5618
(lp5619
F0
aF0
a(lp5620
Vauto
p5621
aVauto
p5622
aF0
aF0
aF1
aF1
aaa(lp5623
F15
aF0
a(lp5624
Vauto
p5625
aVauto
p5626
aF0
aF0
aF1
aF1
aaa(lp5627
F30
aF0
a(lp5628
Vauto
p5629
aVauto
p5630
aF0
aF0
aF1
aF1
aaaaaaaaa(lp5631
S'index_finger_fk_ctrl_1_l'
p5632
a(lp5633
(lp5634
Na(lp5635
(lp5636
VtranslateX
p5637
a(lp5638
(lp5639
F0
aF0
a(lp5640
Vauto
p5641
aVauto
p5642
aF0
aF0
aF1
aF1
aaa(lp5643
F15
aF0
a(lp5644
Vauto
p5645
aVauto
p5646
aF0
aF0
aF1
aF1
aaa(lp5647
F30
aF0
a(lp5648
Vauto
p5649
aVauto
p5650
aF0
aF0
aF1
aF1
aaaaa(lp5651
VtranslateY
p5652
a(lp5653
(lp5654
F0
aF0
a(lp5655
Vauto
p5656
aVauto
p5657
aF0
aF0
aF1
aF1
aaa(lp5658
F15
aF0
a(lp5659
Vauto
p5660
aVauto
p5661
aF0
aF0
aF1
aF1
aaa(lp5662
F30
aF0
a(lp5663
Vauto
p5664
aVauto
p5665
aF0
aF0
aF1
aF1
aaaaa(lp5666
VtranslateZ
p5667
a(lp5668
(lp5669
F0
aF0
a(lp5670
Vauto
p5671
aVauto
p5672
aF0
aF0
aF1
aF1
aaa(lp5673
F15
aF0
a(lp5674
Vauto
p5675
aVauto
p5676
aF0
aF0
aF1
aF1
aaa(lp5677
F30
aF0
a(lp5678
Vauto
p5679
aVauto
p5680
aF0
aF0
aF1
aF1
aaaaa(lp5681
VrotateX
p5682
a(lp5683
(lp5684
F0
aF0
a(lp5685
Vauto
p5686
aVauto
p5687
aF0
aF0
aF1
aF1
aaa(lp5688
F15
aF0
a(lp5689
Vauto
p5690
aVauto
p5691
aF0
aF0
aF1
aF1
aaa(lp5692
F30
aF0
a(lp5693
Vauto
p5694
aVauto
p5695
aF0
aF0
aF1
aF1
aaaaa(lp5696
VrotateY
p5697
a(lp5698
(lp5699
F0
aF0
a(lp5700
Vauto
p5701
aVauto
p5702
aF0
aF0
aF1
aF1
aaa(lp5703
F15
aF0
a(lp5704
Vauto
p5705
aVauto
p5706
aF0
aF0
aF1
aF1
aaa(lp5707
F30
aF0
a(lp5708
Vauto
p5709
aVauto
p5710
aF0
aF0
aF1
aF1
aaaaa(lp5711
VrotateZ
p5712
a(lp5713
(lp5714
F0
aF2.6785281520000002
a(lp5715
Vauto
p5716
aVauto
p5717
aF0
aF0
aF1
aF1
aaa(lp5718
F15
aF2.6785281520000002
a(lp5719
Vauto
p5720
aVauto
p5721
aF0
aF0
aF1
aF1
aaa(lp5722
F30
aF2.6785281520000002
a(lp5723
Vauto
p5724
aVauto
p5725
aF0
aF0
aF1
aF1
aaaaa(lp5726
Vsticky
p5727
a(lp5728
(lp5729
F0
aF0
a(lp5730
Vauto
p5731
aVauto
p5732
aF0
aF0
aF1
aF1
aaa(lp5733
F15
aF0
a(lp5734
Vauto
p5735
aVauto
p5736
aF0
aF0
aF1
aF1
aaa(lp5737
F30
aF0
a(lp5738
Vauto
p5739
aVauto
p5740
aF0
aF0
aF1
aF1
aaaaaaaaa(lp5741
S'index_finger_fk_ctrl_1_r'
p5742
a(lp5743
(lp5744
Na(lp5745
(lp5746
VtranslateX
p5747
a(lp5748
(lp5749
F0
aF0
a(lp5750
Vauto
p5751
aVauto
p5752
aF0
aF0
aF1
aF1
aaa(lp5753
F15
aF0
a(lp5754
Vauto
p5755
aVauto
p5756
aF0
aF0
aF1
aF1
aaa(lp5757
F30
aF0
a(lp5758
Vauto
p5759
aVauto
p5760
aF0
aF0
aF1
aF1
aaaaa(lp5761
VtranslateY
p5762
a(lp5763
(lp5764
F0
aF0
a(lp5765
Vauto
p5766
aVauto
p5767
aF0
aF0
aF1
aF1
aaa(lp5768
F15
aF0
a(lp5769
Vauto
p5770
aVauto
p5771
aF0
aF0
aF1
aF1
aaa(lp5772
F30
aF0
a(lp5773
Vauto
p5774
aVauto
p5775
aF0
aF0
aF1
aF1
aaaaa(lp5776
VtranslateZ
p5777
a(lp5778
(lp5779
F0
aF0
a(lp5780
Vauto
p5781
aVauto
p5782
aF0
aF0
aF1
aF1
aaa(lp5783
F15
aF0
a(lp5784
Vauto
p5785
aVauto
p5786
aF0
aF0
aF1
aF1
aaa(lp5787
F30
aF0
a(lp5788
Vauto
p5789
aVauto
p5790
aF0
aF0
aF1
aF1
aaaaa(lp5791
VrotateX
p5792
a(lp5793
(lp5794
F0
aF0
a(lp5795
Vauto
p5796
aVauto
p5797
aF0
aF0
aF1
aF1
aaa(lp5798
F15
aF0
a(lp5799
Vauto
p5800
aVauto
p5801
aF0
aF0
aF1
aF1
aaa(lp5802
F30
aF0
a(lp5803
Vauto
p5804
aVauto
p5805
aF0
aF0
aF1
aF1
aaaaa(lp5806
VrotateY
p5807
a(lp5808
(lp5809
F0
aF0
a(lp5810
Vauto
p5811
aVauto
p5812
aF0
aF0
aF1
aF1
aaa(lp5813
F15
aF0
a(lp5814
Vauto
p5815
aVauto
p5816
aF0
aF0
aF1
aF1
aaa(lp5817
F30
aF0
a(lp5818
Vauto
p5819
aVauto
p5820
aF0
aF0
aF1
aF1
aaaaa(lp5821
VrotateZ
p5822
a(lp5823
(lp5824
F0
aF2.6785281520000002
a(lp5825
Vauto
p5826
aVauto
p5827
aF0
aF0
aF1
aF1
aaa(lp5828
F15
aF2.6785281520000002
a(lp5829
Vauto
p5830
aVauto
p5831
aF0
aF0
aF1
aF1
aaa(lp5832
F30
aF2.6785281520000002
a(lp5833
Vauto
p5834
aVauto
p5835
aF0
aF0
aF1
aF1
aaaaa(lp5836
Vsticky
p5837
a(lp5838
(lp5839
F0
aF0
a(lp5840
Vauto
p5841
aVauto
p5842
aF0
aF0
aF1
aF1
aaa(lp5843
F15
aF0
a(lp5844
Vauto
p5845
aVauto
p5846
aF0
aF0
aF1
aF1
aaa(lp5847
F30
aF0
a(lp5848
Vauto
p5849
aVauto
p5850
aF0
aF0
aF1
aF1
aaaaaaaaa(lp5851
S'index_finger_fk_ctrl_2_l'
p5852
a(lp5853
(lp5854
Na(lp5855
(lp5856
VtranslateX
p5857
a(lp5858
(lp5859
F0
aF0
a(lp5860
Vauto
p5861
aVauto
p5862
aF0
aF0
aF1
aF1
aaa(lp5863
F15
aF0
a(lp5864
Vauto
p5865
aVauto
p5866
aF0
aF0
aF1
aF1
aaa(lp5867
F30
aF0
a(lp5868
Vauto
p5869
aVauto
p5870
aF0
aF0
aF1
aF1
aaaaa(lp5871
VtranslateY
p5872
a(lp5873
(lp5874
F0
aF0
a(lp5875
Vauto
p5876
aVauto
p5877
aF0
aF0
aF1
aF1
aaa(lp5878
F15
aF0
a(lp5879
Vauto
p5880
aVauto
p5881
aF0
aF0
aF1
aF1
aaa(lp5882
F30
aF0
a(lp5883
Vauto
p5884
aVauto
p5885
aF0
aF0
aF1
aF1
aaaaa(lp5886
VtranslateZ
p5887
a(lp5888
(lp5889
F0
aF0
a(lp5890
Vauto
p5891
aVauto
p5892
aF0
aF0
aF1
aF1
aaa(lp5893
F15
aF0
a(lp5894
Vauto
p5895
aVauto
p5896
aF0
aF0
aF1
aF1
aaa(lp5897
F30
aF0
a(lp5898
Vauto
p5899
aVauto
p5900
aF0
aF0
aF1
aF1
aaaaa(lp5901
VrotateX
p5902
a(lp5903
(lp5904
F0
aF0
a(lp5905
Vauto
p5906
aVauto
p5907
aF0
aF0
aF1
aF1
aaa(lp5908
F15
aF0
a(lp5909
Vauto
p5910
aVauto
p5911
aF0
aF0
aF1
aF1
aaa(lp5912
F30
aF0
a(lp5913
Vauto
p5914
aVauto
p5915
aF0
aF0
aF1
aF1
aaaaa(lp5916
VrotateY
p5917
a(lp5918
(lp5919
F0
aF0
a(lp5920
Vauto
p5921
aVauto
p5922
aF0
aF0
aF1
aF1
aaa(lp5923
F15
aF0
a(lp5924
Vauto
p5925
aVauto
p5926
aF0
aF0
aF1
aF1
aaa(lp5927
F30
aF0
a(lp5928
Vauto
p5929
aVauto
p5930
aF0
aF0
aF1
aF1
aaaaa(lp5931
VrotateZ
p5932
a(lp5933
(lp5934
F0
aF6.3826249629999996
a(lp5935
Vauto
p5936
aVauto
p5937
aF0
aF0
aF1
aF1
aaa(lp5938
F15
aF6.3826249629999996
a(lp5939
Vauto
p5940
aVauto
p5941
aF0
aF0
aF1
aF1
aaa(lp5942
F30
aF6.3826249629999996
a(lp5943
Vauto
p5944
aVauto
p5945
aF0
aF0
aF1
aF1
aaaaaaaaa(lp5946
S'index_finger_fk_ctrl_2_r'
p5947
a(lp5948
(lp5949
Na(lp5950
(lp5951
VtranslateX
p5952
a(lp5953
(lp5954
F0
aF0
a(lp5955
Vauto
p5956
aVauto
p5957
aF0
aF0
aF1
aF1
aaa(lp5958
F15
aF0
a(lp5959
Vauto
p5960
aVauto
p5961
aF0
aF0
aF1
aF1
aaa(lp5962
F30
aF0
a(lp5963
Vauto
p5964
aVauto
p5965
aF0
aF0
aF1
aF1
aaaaa(lp5966
VtranslateY
p5967
a(lp5968
(lp5969
F0
aF0
a(lp5970
Vauto
p5971
aVauto
p5972
aF0
aF0
aF1
aF1
aaa(lp5973
F15
aF0
a(lp5974
Vauto
p5975
aVauto
p5976
aF0
aF0
aF1
aF1
aaa(lp5977
F30
aF0
a(lp5978
Vauto
p5979
aVauto
p5980
aF0
aF0
aF1
aF1
aaaaa(lp5981
VtranslateZ
p5982
a(lp5983
(lp5984
F0
aF0
a(lp5985
Vauto
p5986
aVauto
p5987
aF0
aF0
aF1
aF1
aaa(lp5988
F15
aF0
a(lp5989
Vauto
p5990
aVauto
p5991
aF0
aF0
aF1
aF1
aaa(lp5992
F30
aF0
a(lp5993
Vauto
p5994
aVauto
p5995
aF0
aF0
aF1
aF1
aaaaa(lp5996
VrotateX
p5997
a(lp5998
(lp5999
F0
aF0
a(lp6000
Vauto
p6001
aVauto
p6002
aF0
aF0
aF1
aF1
aaa(lp6003
F15
aF0
a(lp6004
Vauto
p6005
aVauto
p6006
aF0
aF0
aF1
aF1
aaa(lp6007
F30
aF0
a(lp6008
Vauto
p6009
aVauto
p6010
aF0
aF0
aF1
aF1
aaaaa(lp6011
VrotateY
p6012
a(lp6013
(lp6014
F0
aF0
a(lp6015
Vauto
p6016
aVauto
p6017
aF0
aF0
aF1
aF1
aaa(lp6018
F15
aF0
a(lp6019
Vauto
p6020
aVauto
p6021
aF0
aF0
aF1
aF1
aaa(lp6022
F30
aF0
a(lp6023
Vauto
p6024
aVauto
p6025
aF0
aF0
aF1
aF1
aaaaa(lp6026
VrotateZ
p6027
a(lp6028
(lp6029
F0
aF6.3826249629999996
a(lp6030
Vauto
p6031
aVauto
p6032
aF0
aF0
aF1
aF1
aaa(lp6033
F15
aF6.3826249629999996
a(lp6034
Vauto
p6035
aVauto
p6036
aF0
aF0
aF1
aF1
aaa(lp6037
F30
aF6.3826249629999996
a(lp6038
Vauto
p6039
aVauto
p6040
aF0
aF0
aF1
aF1
aaaaaaaaa(lp6041
S'index_finger_fk_ctrl_3_l'
p6042
a(lp6043
(lp6044
Na(lp6045
(lp6046
VtranslateX
p6047
a(lp6048
(lp6049
F0
aF0
a(lp6050
Vauto
p6051
aVauto
p6052
aF0
aF0
aF1
aF1
aaa(lp6053
F15
aF0
a(lp6054
Vauto
p6055
aVauto
p6056
aF0
aF0
aF1
aF1
aaa(lp6057
F30
aF0
a(lp6058
Vauto
p6059
aVauto
p6060
aF0
aF0
aF1
aF1
aaaaa(lp6061
VtranslateY
p6062
a(lp6063
(lp6064
F0
aF0
a(lp6065
Vauto
p6066
aVauto
p6067
aF0
aF0
aF1
aF1
aaa(lp6068
F15
aF0
a(lp6069
Vauto
p6070
aVauto
p6071
aF0
aF0
aF1
aF1
aaa(lp6072
F30
aF0
a(lp6073
Vauto
p6074
aVauto
p6075
aF0
aF0
aF1
aF1
aaaaa(lp6076
VtranslateZ
p6077
a(lp6078
(lp6079
F0
aF0
a(lp6080
Vauto
p6081
aVauto
p6082
aF0
aF0
aF1
aF1
aaa(lp6083
F15
aF0
a(lp6084
Vauto
p6085
aVauto
p6086
aF0
aF0
aF1
aF1
aaa(lp6087
F30
aF0
a(lp6088
Vauto
p6089
aVauto
p6090
aF0
aF0
aF1
aF1
aaaaa(lp6091
VrotateX
p6092
a(lp6093
(lp6094
F0
aF0
a(lp6095
Vauto
p6096
aVauto
p6097
aF0
aF0
aF1
aF1
aaa(lp6098
F15
aF0
a(lp6099
Vauto
p6100
aVauto
p6101
aF0
aF0
aF1
aF1
aaa(lp6102
F30
aF0
a(lp6103
Vauto
p6104
aVauto
p6105
aF0
aF0
aF1
aF1
aaaaa(lp6106
VrotateY
p6107
a(lp6108
(lp6109
F0
aF0
a(lp6110
Vauto
p6111
aVauto
p6112
aF0
aF0
aF1
aF1
aaa(lp6113
F15
aF0
a(lp6114
Vauto
p6115
aVauto
p6116
aF0
aF0
aF1
aF1
aaa(lp6117
F30
aF0
a(lp6118
Vauto
p6119
aVauto
p6120
aF0
aF0
aF1
aF1
aaaaa(lp6121
VrotateZ
p6122
a(lp6123
(lp6124
F0
aF3.7672390280000001
a(lp6125
Vauto
p6126
aVauto
p6127
aF0
aF0
aF1
aF1
aaa(lp6128
F15
aF3.7672390280000001
a(lp6129
Vauto
p6130
aVauto
p6131
aF0
aF0
aF1
aF1
aaa(lp6132
F30
aF3.7672390280000001
a(lp6133
Vauto
p6134
aVauto
p6135
aF0
aF0
aF1
aF1
aaaaaaaaa(lp6136
S'index_finger_fk_ctrl_3_r'
p6137
a(lp6138
(lp6139
Na(lp6140
(lp6141
VtranslateX
p6142
a(lp6143
(lp6144
F0
aF0
a(lp6145
Vauto
p6146
aVauto
p6147
aF0
aF0
aF1
aF1
aaa(lp6148
F15
aF0
a(lp6149
Vauto
p6150
aVauto
p6151
aF0
aF0
aF1
aF1
aaa(lp6152
F30
aF0
a(lp6153
Vauto
p6154
aVauto
p6155
aF0
aF0
aF1
aF1
aaaaa(lp6156
VtranslateY
p6157
a(lp6158
(lp6159
F0
aF0
a(lp6160
Vauto
p6161
aVauto
p6162
aF0
aF0
aF1
aF1
aaa(lp6163
F15
aF0
a(lp6164
Vauto
p6165
aVauto
p6166
aF0
aF0
aF1
aF1
aaa(lp6167
F30
aF0
a(lp6168
Vauto
p6169
aVauto
p6170
aF0
aF0
aF1
aF1
aaaaa(lp6171
VtranslateZ
p6172
a(lp6173
(lp6174
F0
aF0
a(lp6175
Vauto
p6176
aVauto
p6177
aF0
aF0
aF1
aF1
aaa(lp6178
F15
aF0
a(lp6179
Vauto
p6180
aVauto
p6181
aF0
aF0
aF1
aF1
aaa(lp6182
F30
aF0
a(lp6183
Vauto
p6184
aVauto
p6185
aF0
aF0
aF1
aF1
aaaaa(lp6186
VrotateX
p6187
a(lp6188
(lp6189
F0
aF0
a(lp6190
Vauto
p6191
aVauto
p6192
aF0
aF0
aF1
aF1
aaa(lp6193
F15
aF0
a(lp6194
Vauto
p6195
aVauto
p6196
aF0
aF0
aF1
aF1
aaa(lp6197
F30
aF0
a(lp6198
Vauto
p6199
aVauto
p6200
aF0
aF0
aF1
aF1
aaaaa(lp6201
VrotateY
p6202
a(lp6203
(lp6204
F0
aF0
a(lp6205
Vauto
p6206
aVauto
p6207
aF0
aF0
aF1
aF1
aaa(lp6208
F15
aF0
a(lp6209
Vauto
p6210
aVauto
p6211
aF0
aF0
aF1
aF1
aaa(lp6212
F30
aF0
a(lp6213
Vauto
p6214
aVauto
p6215
aF0
aF0
aF1
aF1
aaaaa(lp6216
VrotateZ
p6217
a(lp6218
(lp6219
F0
aF3.7672390280000001
a(lp6220
Vauto
p6221
aVauto
p6222
aF0
aF0
aF1
aF1
aaa(lp6223
F15
aF3.7672390280000001
a(lp6224
Vauto
p6225
aVauto
p6226
aF0
aF0
aF1
aF1
aaa(lp6227
F30
aF3.7672390280000001
a(lp6228
Vauto
p6229
aVauto
p6230
aF0
aF0
aF1
aF1
aaaaaaaaa(lp6231
S'thumb_finger_fk_ctrl_1_l'
p6232
a(lp6233
(lp6234
Na(lp6235
(lp6236
VtranslateX
p6237
a(lp6238
(lp6239
F0
aF0
a(lp6240
Vauto
p6241
aVauto
p6242
aF0
aF0
aF1
aF1
aaa(lp6243
F15
aF0
a(lp6244
Vauto
p6245
aVauto
p6246
aF0
aF0
aF1
aF1
aaa(lp6247
F30
aF0
a(lp6248
Vauto
p6249
aVauto
p6250
aF0
aF0
aF1
aF1
aaaaa(lp6251
VtranslateY
p6252
a(lp6253
(lp6254
F0
aF0
a(lp6255
Vauto
p6256
aVauto
p6257
aF0
aF0
aF1
aF1
aaa(lp6258
F15
aF0
a(lp6259
Vauto
p6260
aVauto
p6261
aF0
aF0
aF1
aF1
aaa(lp6262
F30
aF0
a(lp6263
Vauto
p6264
aVauto
p6265
aF0
aF0
aF1
aF1
aaaaa(lp6266
VtranslateZ
p6267
a(lp6268
(lp6269
F0
aF0
a(lp6270
Vauto
p6271
aVauto
p6272
aF0
aF0
aF1
aF1
aaa(lp6273
F15
aF0
a(lp6274
Vauto
p6275
aVauto
p6276
aF0
aF0
aF1
aF1
aaa(lp6277
F30
aF0
a(lp6278
Vauto
p6279
aVauto
p6280
aF0
aF0
aF1
aF1
aaaaa(lp6281
VrotateX
p6282
a(lp6283
(lp6284
F0
aF-6.7669023025744526
a(lp6285
Vauto
p6286
aVauto
p6287
aF0
aF0
aF1
aF1
aaa(lp6288
F15
aF-6.7669023025744526
a(lp6289
Vauto
p6290
aVauto
p6291
aF0
aF0
aF1
aF1
aaa(lp6292
F30
aF-6.7669023025744526
a(lp6293
Vauto
p6294
aVauto
p6295
aF0
aF0
aF1
aF1
aaaaa(lp6296
VrotateY
p6297
a(lp6298
(lp6299
F0
aF-16.43818444420182
a(lp6300
Vauto
p6301
aVauto
p6302
aF0
aF0
aF1
aF1
aaa(lp6303
F15
aF-16.43818444420182
a(lp6304
Vauto
p6305
aVauto
p6306
aF0
aF0
aF1
aF1
aaa(lp6307
F30
aF-16.43818444420182
a(lp6308
Vauto
p6309
aVauto
p6310
aF0
aF0
aF1
aF1
aaaaa(lp6311
VrotateZ
p6312
a(lp6313
(lp6314
F0
aF6.315208670121975
a(lp6315
Vauto
p6316
aVauto
p6317
aF0
aF0
aF1
aF1
aaa(lp6318
F15
aF6.315208670121975
a(lp6319
Vauto
p6320
aVauto
p6321
aF0
aF0
aF1
aF1
aaa(lp6322
F30
aF6.315208670121975
a(lp6323
Vauto
p6324
aVauto
p6325
aF0
aF0
aF1
aF1
aaaaa(lp6326
Vsticky
p6327
a(lp6328
(lp6329
F0
aF0
a(lp6330
Vauto
p6331
aVauto
p6332
aF0
aF0
aF1
aF1
aaa(lp6333
F15
aF0
a(lp6334
Vauto
p6335
aVauto
p6336
aF0
aF0
aF1
aF1
aaa(lp6337
F30
aF0
a(lp6338
Vauto
p6339
aVauto
p6340
aF0
aF0
aF1
aF1
aaaaaaaaa(lp6341
S'thumb_finger_fk_ctrl_1_r'
p6342
a(lp6343
(lp6344
Na(lp6345
(lp6346
VtranslateX
p6347
a(lp6348
(lp6349
F0
aF0
a(lp6350
Vauto
p6351
aVauto
p6352
aF0
aF0
aF1
aF1
aaa(lp6353
F15
aF0
a(lp6354
Vauto
p6355
aVauto
p6356
aF0
aF0
aF1
aF1
aaa(lp6357
F30
aF0
a(lp6358
Vauto
p6359
aVauto
p6360
aF0
aF0
aF1
aF1
aaaaa(lp6361
VtranslateY
p6362
a(lp6363
(lp6364
F0
aF0
a(lp6365
Vauto
p6366
aVauto
p6367
aF0
aF0
aF1
aF1
aaa(lp6368
F15
aF0
a(lp6369
Vauto
p6370
aVauto
p6371
aF0
aF0
aF1
aF1
aaa(lp6372
F30
aF0
a(lp6373
Vauto
p6374
aVauto
p6375
aF0
aF0
aF1
aF1
aaaaa(lp6376
VtranslateZ
p6377
a(lp6378
(lp6379
F0
aF0
a(lp6380
Vauto
p6381
aVauto
p6382
aF0
aF0
aF1
aF1
aaa(lp6383
F15
aF0
a(lp6384
Vauto
p6385
aVauto
p6386
aF0
aF0
aF1
aF1
aaa(lp6387
F30
aF0
a(lp6388
Vauto
p6389
aVauto
p6390
aF0
aF0
aF1
aF1
aaaaa(lp6391
VrotateX
p6392
a(lp6393
(lp6394
F0
aF-6.7669023025744526
a(lp6395
Vauto
p6396
aVauto
p6397
aF0
aF0
aF1
aF1
aaa(lp6398
F15
aF-6.7669023025744526
a(lp6399
Vauto
p6400
aVauto
p6401
aF0
aF0
aF1
aF1
aaa(lp6402
F30
aF-6.7669023025744526
a(lp6403
Vauto
p6404
aVauto
p6405
aF0
aF0
aF1
aF1
aaaaa(lp6406
VrotateY
p6407
a(lp6408
(lp6409
F0
aF-16.43818444420182
a(lp6410
Vauto
p6411
aVauto
p6412
aF0
aF0
aF1
aF1
aaa(lp6413
F15
aF-16.43818444420182
a(lp6414
Vauto
p6415
aVauto
p6416
aF0
aF0
aF1
aF1
aaa(lp6417
F30
aF-16.43818444420182
a(lp6418
Vauto
p6419
aVauto
p6420
aF0
aF0
aF1
aF1
aaaaa(lp6421
VrotateZ
p6422
a(lp6423
(lp6424
F0
aF6.315208670121975
a(lp6425
Vauto
p6426
aVauto
p6427
aF0
aF0
aF1
aF1
aaa(lp6428
F15
aF6.315208670121975
a(lp6429
Vauto
p6430
aVauto
p6431
aF0
aF0
aF1
aF1
aaa(lp6432
F30
aF6.315208670121975
a(lp6433
Vauto
p6434
aVauto
p6435
aF0
aF0
aF1
aF1
aaaaa(lp6436
Vsticky
p6437
a(lp6438
(lp6439
F0
aF0
a(lp6440
Vauto
p6441
aVauto
p6442
aF0
aF0
aF1
aF1
aaa(lp6443
F15
aF0
a(lp6444
Vauto
p6445
aVauto
p6446
aF0
aF0
aF1
aF1
aaa(lp6447
F30
aF0
a(lp6448
Vauto
p6449
aVauto
p6450
aF0
aF0
aF1
aF1
aaaaaaaaa(lp6451
S'thumb_finger_fk_ctrl_2_l'
p6452
a(lp6453
(lp6454
Na(lp6455
(lp6456
VtranslateX
p6457
a(lp6458
(lp6459
F0
aF0
a(lp6460
Vauto
p6461
aVauto
p6462
aF0
aF0
aF1
aF1
aaa(lp6463
F15
aF0
a(lp6464
Vauto
p6465
aVauto
p6466
aF0
aF0
aF1
aF1
aaa(lp6467
F30
aF0
a(lp6468
Vauto
p6469
aVauto
p6470
aF0
aF0
aF1
aF1
aaaaa(lp6471
VtranslateY
p6472
a(lp6473
(lp6474
F0
aF0
a(lp6475
Vauto
p6476
aVauto
p6477
aF0
aF0
aF1
aF1
aaa(lp6478
F15
aF0
a(lp6479
Vauto
p6480
aVauto
p6481
aF0
aF0
aF1
aF1
aaa(lp6482
F30
aF0
a(lp6483
Vauto
p6484
aVauto
p6485
aF0
aF0
aF1
aF1
aaaaa(lp6486
VtranslateZ
p6487
a(lp6488
(lp6489
F0
aF0
a(lp6490
Vauto
p6491
aVauto
p6492
aF0
aF0
aF1
aF1
aaa(lp6493
F15
aF0
a(lp6494
Vauto
p6495
aVauto
p6496
aF0
aF0
aF1
aF1
aaa(lp6497
F30
aF0
a(lp6498
Vauto
p6499
aVauto
p6500
aF0
aF0
aF1
aF1
aaaaa(lp6501
VrotateX
p6502
a(lp6503
(lp6504
F0
aF0
a(lp6505
Vauto
p6506
aVauto
p6507
aF0
aF0
aF1
aF1
aaa(lp6508
F15
aF0
a(lp6509
Vauto
p6510
aVauto
p6511
aF0
aF0
aF1
aF1
aaa(lp6512
F30
aF0
a(lp6513
Vauto
p6514
aVauto
p6515
aF0
aF0
aF1
aF1
aaaaa(lp6516
VrotateY
p6517
a(lp6518
(lp6519
F0
aF0
a(lp6520
Vauto
p6521
aVauto
p6522
aF0
aF0
aF1
aF1
aaa(lp6523
F15
aF0
a(lp6524
Vauto
p6525
aVauto
p6526
aF0
aF0
aF1
aF1
aaa(lp6527
F30
aF0
a(lp6528
Vauto
p6529
aVauto
p6530
aF0
aF0
aF1
aF1
aaaaa(lp6531
VrotateZ
p6532
a(lp6533
(lp6534
F0
aF17.574516350404419
a(lp6535
Vauto
p6536
aVauto
p6537
aF0
aF0
aF1
aF1
aaa(lp6538
F15
aF17.574516350404419
a(lp6539
Vauto
p6540
aVauto
p6541
aF0
aF0
aF1
aF1
aaa(lp6542
F30
aF17.574516350404419
a(lp6543
Vauto
p6544
aVauto
p6545
aF0
aF0
aF1
aF1
aaaaaaaaa(lp6546
S'thumb_finger_fk_ctrl_2_r'
p6547
a(lp6548
(lp6549
Na(lp6550
(lp6551
VtranslateX
p6552
a(lp6553
(lp6554
F0
aF0
a(lp6555
Vauto
p6556
aVauto
p6557
aF0
aF0
aF1
aF1
aaa(lp6558
F15
aF0
a(lp6559
Vauto
p6560
aVauto
p6561
aF0
aF0
aF1
aF1
aaa(lp6562
F30
aF0
a(lp6563
Vauto
p6564
aVauto
p6565
aF0
aF0
aF1
aF1
aaaaa(lp6566
VtranslateY
p6567
a(lp6568
(lp6569
F0
aF0
a(lp6570
Vauto
p6571
aVauto
p6572
aF0
aF0
aF1
aF1
aaa(lp6573
F15
aF0
a(lp6574
Vauto
p6575
aVauto
p6576
aF0
aF0
aF1
aF1
aaa(lp6577
F30
aF0
a(lp6578
Vauto
p6579
aVauto
p6580
aF0
aF0
aF1
aF1
aaaaa(lp6581
VtranslateZ
p6582
a(lp6583
(lp6584
F0
aF0
a(lp6585
Vauto
p6586
aVauto
p6587
aF0
aF0
aF1
aF1
aaa(lp6588
F15
aF0
a(lp6589
Vauto
p6590
aVauto
p6591
aF0
aF0
aF1
aF1
aaa(lp6592
F30
aF0
a(lp6593
Vauto
p6594
aVauto
p6595
aF0
aF0
aF1
aF1
aaaaa(lp6596
VrotateX
p6597
a(lp6598
(lp6599
F0
aF0
a(lp6600
Vauto
p6601
aVauto
p6602
aF0
aF0
aF1
aF1
aaa(lp6603
F15
aF0
a(lp6604
Vauto
p6605
aVauto
p6606
aF0
aF0
aF1
aF1
aaa(lp6607
F30
aF0
a(lp6608
Vauto
p6609
aVauto
p6610
aF0
aF0
aF1
aF1
aaaaa(lp6611
VrotateY
p6612
a(lp6613
(lp6614
F0
aF0
a(lp6615
Vauto
p6616
aVauto
p6617
aF0
aF0
aF1
aF1
aaa(lp6618
F15
aF0
a(lp6619
Vauto
p6620
aVauto
p6621
aF0
aF0
aF1
aF1
aaa(lp6622
F30
aF0
a(lp6623
Vauto
p6624
aVauto
p6625
aF0
aF0
aF1
aF1
aaaaa(lp6626
VrotateZ
p6627
a(lp6628
(lp6629
F0
aF17.574516350404419
a(lp6630
Vauto
p6631
aVauto
p6632
aF0
aF0
aF1
aF1
aaa(lp6633
F15
aF17.574516350404419
a(lp6634
Vauto
p6635
aVauto
p6636
aF0
aF0
aF1
aF1
aaa(lp6637
F30
aF17.574516350404419
a(lp6638
Vauto
p6639
aVauto
p6640
aF0
aF0
aF1
aF1
aaaaaaaaa(lp6641
S'thumb_finger_fk_ctrl_3_l'
p6642
a(lp6643
(lp6644
Na(lp6645
(lp6646
VtranslateX
p6647
a(lp6648
(lp6649
F0
aF0
a(lp6650
Vauto
p6651
aVauto
p6652
aF0
aF0
aF1
aF1
aaa(lp6653
F15
aF0
a(lp6654
Vauto
p6655
aVauto
p6656
aF0
aF0
aF1
aF1
aaa(lp6657
F30
aF0
a(lp6658
Vauto
p6659
aVauto
p6660
aF0
aF0
aF1
aF1
aaaaa(lp6661
VtranslateY
p6662
a(lp6663
(lp6664
F0
aF0
a(lp6665
Vauto
p6666
aVauto
p6667
aF0
aF0
aF1
aF1
aaa(lp6668
F15
aF0
a(lp6669
Vauto
p6670
aVauto
p6671
aF0
aF0
aF1
aF1
aaa(lp6672
F30
aF0
a(lp6673
Vauto
p6674
aVauto
p6675
aF0
aF0
aF1
aF1
aaaaa(lp6676
VtranslateZ
p6677
a(lp6678
(lp6679
F0
aF0
a(lp6680
Vauto
p6681
aVauto
p6682
aF0
aF0
aF1
aF1
aaa(lp6683
F15
aF0
a(lp6684
Vauto
p6685
aVauto
p6686
aF0
aF0
aF1
aF1
aaa(lp6687
F30
aF0
a(lp6688
Vauto
p6689
aVauto
p6690
aF0
aF0
aF1
aF1
aaaaa(lp6691
VrotateX
p6692
a(lp6693
(lp6694
F0
aF0
a(lp6695
Vauto
p6696
aVauto
p6697
aF0
aF0
aF1
aF1
aaa(lp6698
F15
aF0
a(lp6699
Vauto
p6700
aVauto
p6701
aF0
aF0
aF1
aF1
aaa(lp6702
F30
aF0
a(lp6703
Vauto
p6704
aVauto
p6705
aF0
aF0
aF1
aF1
aaaaa(lp6706
VrotateY
p6707
a(lp6708
(lp6709
F0
aF0
a(lp6710
Vauto
p6711
aVauto
p6712
aF0
aF0
aF1
aF1
aaa(lp6713
F15
aF0
a(lp6714
Vauto
p6715
aVauto
p6716
aF0
aF0
aF1
aF1
aaa(lp6717
F30
aF0
a(lp6718
Vauto
p6719
aVauto
p6720
aF0
aF0
aF1
aF1
aaaaa(lp6721
VrotateZ
p6722
a(lp6723
(lp6724
F0
aF4.7566897911614712
a(lp6725
Vauto
p6726
aVauto
p6727
aF0
aF0
aF1
aF1
aaa(lp6728
F15
aF4.7566897911614712
a(lp6729
Vauto
p6730
aVauto
p6731
aF0
aF0
aF1
aF1
aaa(lp6732
F30
aF4.7566897911614712
a(lp6733
Vauto
p6734
aVauto
p6735
aF0
aF0
aF1
aF1
aaaaaaaaa(lp6736
S'thumb_finger_fk_ctrl_3_r'
p6737
a(lp6738
(lp6739
Na(lp6740
(lp6741
VtranslateX
p6742
a(lp6743
(lp6744
F0
aF0
a(lp6745
Vauto
p6746
aVauto
p6747
aF0
aF0
aF1
aF1
aaa(lp6748
F15
aF0
a(lp6749
Vauto
p6750
aVauto
p6751
aF0
aF0
aF1
aF1
aaa(lp6752
F30
aF0
a(lp6753
Vauto
p6754
aVauto
p6755
aF0
aF0
aF1
aF1
aaaaa(lp6756
VtranslateY
p6757
a(lp6758
(lp6759
F0
aF0
a(lp6760
Vauto
p6761
aVauto
p6762
aF0
aF0
aF1
aF1
aaa(lp6763
F15
aF0
a(lp6764
Vauto
p6765
aVauto
p6766
aF0
aF0
aF1
aF1
aaa(lp6767
F30
aF0
a(lp6768
Vauto
p6769
aVauto
p6770
aF0
aF0
aF1
aF1
aaaaa(lp6771
VtranslateZ
p6772
a(lp6773
(lp6774
F0
aF0
a(lp6775
Vauto
p6776
aVauto
p6777
aF0
aF0
aF1
aF1
aaa(lp6778
F15
aF0
a(lp6779
Vauto
p6780
aVauto
p6781
aF0
aF0
aF1
aF1
aaa(lp6782
F30
aF0
a(lp6783
Vauto
p6784
aVauto
p6785
aF0
aF0
aF1
aF1
aaaaa(lp6786
VrotateX
p6787
a(lp6788
(lp6789
F0
aF0
a(lp6790
Vauto
p6791
aVauto
p6792
aF0
aF0
aF1
aF1
aaa(lp6793
F15
aF0
a(lp6794
Vauto
p6795
aVauto
p6796
aF0
aF0
aF1
aF1
aaa(lp6797
F30
aF0
a(lp6798
Vauto
p6799
aVauto
p6800
aF0
aF0
aF1
aF1
aaaaa(lp6801
VrotateY
p6802
a(lp6803
(lp6804
F0
aF0
a(lp6805
Vauto
p6806
aVauto
p6807
aF0
aF0
aF1
aF1
aaa(lp6808
F15
aF0
a(lp6809
Vauto
p6810
aVauto
p6811
aF0
aF0
aF1
aF1
aaa(lp6812
F30
aF0
a(lp6813
Vauto
p6814
aVauto
p6815
aF0
aF0
aF1
aF1
aaaaa(lp6816
VrotateZ
p6817
a(lp6818
(lp6819
F0
aF4.7566897911614712
a(lp6820
Vauto
p6821
aVauto
p6822
aF0
aF0
aF1
aF1
aaa(lp6823
F15
aF4.7566897911614712
a(lp6824
Vauto
p6825
aVauto
p6826
aF0
aF0
aF1
aF1
aaa(lp6827
F30
aF4.7566897911614712
a(lp6828
Vauto
p6829
aVauto
p6830
aF0
aF0
aF1
aF1
aaaaaaaaa(lp6831
S'index_l_ik_anim'
p6832
a(lp6833
(lp6834
Na(lp6835
(lp6836
VtranslateX
p6837
a(lp6838
(lp6839
F0
aF0
a(lp6840
Vauto
p6841
aVauto
p6842
aF0
aF0
aF0
aF0
aaaaa(lp6843
VtranslateY
p6844
a(lp6845
(lp6846
F0
aF0
a(lp6847
Vauto
p6848
aVauto
p6849
aF0
aF0
aF0
aF0
aaaaa(lp6850
VtranslateZ
p6851
a(lp6852
(lp6853
F0
aF0
a(lp6854
Vauto
p6855
aVauto
p6856
aF0
aF0
aF0
aF0
aaaaa(lp6857
VrotateX
p6858
a(lp6859
(lp6860
F0
aF0
a(lp6861
Vauto
p6862
aVauto
p6863
aF0
aF0
aF0
aF0
aaaaa(lp6864
VrotateY
p6865
a(lp6866
(lp6867
F0
aF0
a(lp6868
Vauto
p6869
aVauto
p6870
aF0
aF0
aF0
aF0
aaaaa(lp6871
VrotateZ
p6872
a(lp6873
(lp6874
F0
aF0
a(lp6875
Vauto
p6876
aVauto
p6877
aF0
aF0
aF0
aF0
aaaaa(lp6878
VpoleVectorVis
p6879
a(lp6880
(lp6881
F0
aF0
a(lp6882
Vauto
p6883
aVauto
p6884
aF0
aF0
aF0
aF0
aaaaaaaaa(lp6885
S'index_r_ik_anim'
p6886
a(lp6887
(lp6888
Na(lp6889
(lp6890
VtranslateX
p6891
a(lp6892
(lp6893
F0
aF0
a(lp6894
Vauto
p6895
aVauto
p6896
aF0
aF0
aF0
aF0
aaaaa(lp6897
VtranslateY
p6898
a(lp6899
(lp6900
F0
aF0
a(lp6901
Vauto
p6902
aVauto
p6903
aF0
aF0
aF0
aF0
aaaaa(lp6904
VtranslateZ
p6905
a(lp6906
(lp6907
F0
aF0
a(lp6908
Vauto
p6909
aVauto
p6910
aF0
aF0
aF0
aF0
aaaaa(lp6911
VrotateX
p6912
a(lp6913
(lp6914
F0
aF0
a(lp6915
Vauto
p6916
aVauto
p6917
aF0
aF0
aF0
aF0
aaaaa(lp6918
VrotateY
p6919
a(lp6920
(lp6921
F0
aF0
a(lp6922
Vauto
p6923
aVauto
p6924
aF0
aF0
aF0
aF0
aaaaa(lp6925
VrotateZ
p6926
a(lp6927
(lp6928
F0
aF0
a(lp6929
Vauto
p6930
aVauto
p6931
aF0
aF0
aF0
aF0
aaaaa(lp6932
VpoleVectorVis
p6933
a(lp6934
(lp6935
F0
aF0
a(lp6936
Vauto
p6937
aVauto
p6938
aF0
aF0
aF0
aF0
aaaaaaaaa(lp6939
S'middle_l_ik_anim'
p6940
a(lp6941
(lp6942
Na(lp6943
(lp6944
VtranslateX
p6945
a(lp6946
(lp6947
F0
aF0
a(lp6948
Vauto
p6949
aVauto
p6950
aF0
aF0
aF0
aF0
aaaaa(lp6951
VtranslateY
p6952
a(lp6953
(lp6954
F0
aF0
a(lp6955
Vauto
p6956
aVauto
p6957
aF0
aF0
aF0
aF0
aaaaa(lp6958
VtranslateZ
p6959
a(lp6960
(lp6961
F0
aF0
a(lp6962
Vauto
p6963
aVauto
p6964
aF0
aF0
aF0
aF0
aaaaa(lp6965
VrotateX
p6966
a(lp6967
(lp6968
F0
aF0
a(lp6969
Vauto
p6970
aVauto
p6971
aF0
aF0
aF0
aF0
aaaaa(lp6972
VrotateY
p6973
a(lp6974
(lp6975
F0
aF0
a(lp6976
Vauto
p6977
aVauto
p6978
aF0
aF0
aF0
aF0
aaaaa(lp6979
VrotateZ
p6980
a(lp6981
(lp6982
F0
aF0
a(lp6983
Vauto
p6984
aVauto
p6985
aF0
aF0
aF0
aF0
aaaaa(lp6986
VpoleVectorVis
p6987
a(lp6988
(lp6989
F0
aF0
a(lp6990
Vauto
p6991
aVauto
p6992
aF0
aF0
aF0
aF0
aaaaaaaaa(lp6993
S'middle_r_ik_anim'
p6994
a(lp6995
(lp6996
Na(lp6997
(lp6998
VtranslateX
p6999
a(lp7000
(lp7001
F0
aF0
a(lp7002
Vauto
p7003
aVauto
p7004
aF0
aF0
aF0
aF0
aaaaa(lp7005
VtranslateY
p7006
a(lp7007
(lp7008
F0
aF0
a(lp7009
Vauto
p7010
aVauto
p7011
aF0
aF0
aF0
aF0
aaaaa(lp7012
VtranslateZ
p7013
a(lp7014
(lp7015
F0
aF0
a(lp7016
Vauto
p7017
aVauto
p7018
aF0
aF0
aF0
aF0
aaaaa(lp7019
VrotateX
p7020
a(lp7021
(lp7022
F0
aF0
a(lp7023
Vauto
p7024
aVauto
p7025
aF0
aF0
aF0
aF0
aaaaa(lp7026
VrotateY
p7027
a(lp7028
(lp7029
F0
aF0
a(lp7030
Vauto
p7031
aVauto
p7032
aF0
aF0
aF0
aF0
aaaaa(lp7033
VrotateZ
p7034
a(lp7035
(lp7036
F0
aF0
a(lp7037
Vauto
p7038
aVauto
p7039
aF0
aF0
aF0
aF0
aaaaa(lp7040
VpoleVectorVis
p7041
a(lp7042
(lp7043
F0
aF0
a(lp7044
Vauto
p7045
aVauto
p7046
aF0
aF0
aF0
aF0
aaaaaaaaa(lp7047
S'ring_l_ik_anim'
p7048
a(lp7049
(lp7050
Na(lp7051
(lp7052
VtranslateX
p7053
a(lp7054
(lp7055
F0
aF0
a(lp7056
Vauto
p7057
aVauto
p7058
aF0
aF0
aF0
aF0
aaaaa(lp7059
VtranslateY
p7060
a(lp7061
(lp7062
F0
aF0
a(lp7063
Vauto
p7064
aVauto
p7065
aF0
aF0
aF0
aF0
aaaaa(lp7066
VtranslateZ
p7067
a(lp7068
(lp7069
F0
aF0
a(lp7070
Vauto
p7071
aVauto
p7072
aF0
aF0
aF0
aF0
aaaaa(lp7073
VrotateX
p7074
a(lp7075
(lp7076
F0
aF0
a(lp7077
Vauto
p7078
aVauto
p7079
aF0
aF0
aF0
aF0
aaaaa(lp7080
VrotateY
p7081
a(lp7082
(lp7083
F0
aF0
a(lp7084
Vauto
p7085
aVauto
p7086
aF0
aF0
aF0
aF0
aaaaa(lp7087
VrotateZ
p7088
a(lp7089
(lp7090
F0
aF0
a(lp7091
Vauto
p7092
aVauto
p7093
aF0
aF0
aF0
aF0
aaaaa(lp7094
VpoleVectorVis
p7095
a(lp7096
(lp7097
F0
aF0
a(lp7098
Vauto
p7099
aVauto
p7100
aF0
aF0
aF0
aF0
aaaaaaaaa(lp7101
S'ring_r_ik_anim'
p7102
a(lp7103
(lp7104
Na(lp7105
(lp7106
VtranslateX
p7107
a(lp7108
(lp7109
F0
aF0
a(lp7110
Vauto
p7111
aVauto
p7112
aF0
aF0
aF0
aF0
aaaaa(lp7113
VtranslateY
p7114
a(lp7115
(lp7116
F0
aF0
a(lp7117
Vauto
p7118
aVauto
p7119
aF0
aF0
aF0
aF0
aaaaa(lp7120
VtranslateZ
p7121
a(lp7122
(lp7123
F0
aF0
a(lp7124
Vauto
p7125
aVauto
p7126
aF0
aF0
aF0
aF0
aaaaa(lp7127
VrotateX
p7128
a(lp7129
(lp7130
F0
aF0
a(lp7131
Vauto
p7132
aVauto
p7133
aF0
aF0
aF0
aF0
aaaaa(lp7134
VrotateY
p7135
a(lp7136
(lp7137
F0
aF0
a(lp7138
Vauto
p7139
aVauto
p7140
aF0
aF0
aF0
aF0
aaaaa(lp7141
VrotateZ
p7142
a(lp7143
(lp7144
F0
aF0
a(lp7145
Vauto
p7146
aVauto
p7147
aF0
aF0
aF0
aF0
aaaaa(lp7148
VpoleVectorVis
p7149
a(lp7150
(lp7151
F0
aF0
a(lp7152
Vauto
p7153
aVauto
p7154
aF0
aF0
aF0
aF0
aaaaaaaaa(lp7155
S'pinky_l_ik_anim'
p7156
a(lp7157
(lp7158
Na(lp7159
(lp7160
VtranslateX
p7161
a(lp7162
(lp7163
F0
aF0
a(lp7164
Vauto
p7165
aVauto
p7166
aF0
aF0
aF0
aF0
aaaaa(lp7167
VtranslateY
p7168
a(lp7169
(lp7170
F0
aF0
a(lp7171
Vauto
p7172
aVauto
p7173
aF0
aF0
aF0
aF0
aaaaa(lp7174
VtranslateZ
p7175
a(lp7176
(lp7177
F0
aF0
a(lp7178
Vauto
p7179
aVauto
p7180
aF0
aF0
aF0
aF0
aaaaa(lp7181
VrotateX
p7182
a(lp7183
(lp7184
F0
aF0
a(lp7185
Vauto
p7186
aVauto
p7187
aF0
aF0
aF0
aF0
aaaaa(lp7188
VrotateY
p7189
a(lp7190
(lp7191
F0
aF0
a(lp7192
Vauto
p7193
aVauto
p7194
aF0
aF0
aF0
aF0
aaaaa(lp7195
VrotateZ
p7196
a(lp7197
(lp7198
F0
aF0
a(lp7199
Vauto
p7200
aVauto
p7201
aF0
aF0
aF0
aF0
aaaaa(lp7202
VpoleVectorVis
p7203
a(lp7204
(lp7205
F0
aF0
a(lp7206
Vauto
p7207
aVauto
p7208
aF0
aF0
aF0
aF0
aaaaaaaaa(lp7209
S'pinky_r_ik_anim'
p7210
a(lp7211
(lp7212
Na(lp7213
(lp7214
VtranslateX
p7215
a(lp7216
(lp7217
F0
aF0
a(lp7218
Vauto
p7219
aVauto
p7220
aF0
aF0
aF0
aF0
aaaaa(lp7221
VtranslateY
p7222
a(lp7223
(lp7224
F0
aF0
a(lp7225
Vauto
p7226
aVauto
p7227
aF0
aF0
aF0
aF0
aaaaa(lp7228
VtranslateZ
p7229
a(lp7230
(lp7231
F0
aF0
a(lp7232
Vauto
p7233
aVauto
p7234
aF0
aF0
aF0
aF0
aaaaa(lp7235
VrotateX
p7236
a(lp7237
(lp7238
F0
aF0
a(lp7239
Vauto
p7240
aVauto
p7241
aF0
aF0
aF0
aF0
aaaaa(lp7242
VrotateY
p7243
a(lp7244
(lp7245
F0
aF0
a(lp7246
Vauto
p7247
aVauto
p7248
aF0
aF0
aF0
aF0
aaaaa(lp7249
VrotateZ
p7250
a(lp7251
(lp7252
F0
aF0
a(lp7253
Vauto
p7254
aVauto
p7255
aF0
aF0
aF0
aF0
aaaaa(lp7256
VpoleVectorVis
p7257
a(lp7258
(lp7259
F0
aF0
a(lp7260
Vauto
p7261
aVauto
p7262
aF0
aF0
aF0
aF0
aaaaaaaaa(lp7263
S'thumb_l_ik_anim'
p7264
a(lp7265
(lp7266
Na(lp7267
(lp7268
VtranslateX
p7269
a(lp7270
(lp7271
F0
aF0
a(lp7272
Vauto
p7273
aVauto
p7274
aF0
aF0
aF0
aF0
aaaaa(lp7275
VtranslateY
p7276
a(lp7277
(lp7278
F0
aF0
a(lp7279
Vauto
p7280
aVauto
p7281
aF0
aF0
aF0
aF0
aaaaa(lp7282
VtranslateZ
p7283
a(lp7284
(lp7285
F0
aF0
a(lp7286
Vauto
p7287
aVauto
p7288
aF0
aF0
aF0
aF0
aaaaa(lp7289
VrotateX
p7290
a(lp7291
(lp7292
F0
aF0
a(lp7293
Vauto
p7294
aVauto
p7295
aF0
aF0
aF0
aF0
aaaaa(lp7296
VrotateY
p7297
a(lp7298
(lp7299
F0
aF0
a(lp7300
Vauto
p7301
aVauto
p7302
aF0
aF0
aF0
aF0
aaaaa(lp7303
VrotateZ
p7304
a(lp7305
(lp7306
F0
aF0
a(lp7307
Vauto
p7308
aVauto
p7309
aF0
aF0
aF0
aF0
aaaaa(lp7310
VpoleVectorVis
p7311
a(lp7312
(lp7313
F0
aF0
a(lp7314
Vauto
p7315
aVauto
p7316
aF0
aF0
aF0
aF0
aaaaaaaaa(lp7317
S'thumb_r_ik_anim'
p7318
a(lp7319
(lp7320
Na(lp7321
(lp7322
VtranslateX
p7323
a(lp7324
(lp7325
F0
aF0
a(lp7326
Vauto
p7327
aVauto
p7328
aF0
aF0
aF0
aF0
aaaaa(lp7329
VtranslateY
p7330
a(lp7331
(lp7332
F0
aF0
a(lp7333
Vauto
p7334
aVauto
p7335
aF0
aF0
aF0
aF0
aaaaa(lp7336
VtranslateZ
p7337
a(lp7338
(lp7339
F0
aF0
a(lp7340
Vauto
p7341
aVauto
p7342
aF0
aF0
aF0
aF0
aaaaa(lp7343
VrotateX
p7344
a(lp7345
(lp7346
F0
aF0
a(lp7347
Vauto
p7348
aVauto
p7349
aF0
aF0
aF0
aF0
aaaaa(lp7350
VrotateY
p7351
a(lp7352
(lp7353
F0
aF0
a(lp7354
Vauto
p7355
aVauto
p7356
aF0
aF0
aF0
aF0
aaaaa(lp7357
VrotateZ
p7358
a(lp7359
(lp7360
F0
aF0
a(lp7361
Vauto
p7362
aVauto
p7363
aF0
aF0
aF0
aF0
aaaaa(lp7364
VpoleVectorVis
p7365
a(lp7366
(lp7367
F0
aF0
a(lp7368
Vauto
p7369
aVauto
p7370
aF0
aF0
aF0
aF0
aaaaaaaaa(lp7371
S'index_l_poleVector'
p7372
a(lp7373
(lp7374
Na(lp7375
(lp7376
VtranslateX
p7377
a(lp7378
(lp7379
F0
aF0
a(lp7380
Vauto
p7381
aVauto
p7382
aF0
aF0
aF0
aF0
aaaaa(lp7383
VtranslateY
p7384
a(lp7385
(lp7386
F0
aF0
a(lp7387
Vauto
p7388
aVauto
p7389
aF0
aF0
aF0
aF0
aaaaa(lp7390
VtranslateZ
p7391
a(lp7392
(lp7393
F0
aF0
a(lp7394
Vauto
p7395
aVauto
p7396
aF0
aF0
aF0
aF0
aaaaa(lp7397
VrotateX
p7398
a(lp7399
(lp7400
F0
aF0
a(lp7401
Vauto
p7402
aVauto
p7403
aF0
aF0
aF0
aF0
aaaaa(lp7404
VrotateY
p7405
a(lp7406
(lp7407
F0
aF0
a(lp7408
Vauto
p7409
aVauto
p7410
aF0
aF0
aF0
aF0
aaaaa(lp7411
VrotateZ
p7412
a(lp7413
(lp7414
F0
aF0
a(lp7415
Vauto
p7416
aVauto
p7417
aF0
aF0
aF0
aF0
aaaaaaaaa(lp7418
S'index_r_poleVector'
p7419
a(lp7420
(lp7421
Na(lp7422
(lp7423
VtranslateX
p7424
a(lp7425
(lp7426
F0
aF0
a(lp7427
Vauto
p7428
aVauto
p7429
aF0
aF0
aF0
aF0
aaaaa(lp7430
VtranslateY
p7431
a(lp7432
(lp7433
F0
aF0
a(lp7434
Vauto
p7435
aVauto
p7436
aF0
aF0
aF0
aF0
aaaaa(lp7437
VtranslateZ
p7438
a(lp7439
(lp7440
F0
aF0
a(lp7441
Vauto
p7442
aVauto
p7443
aF0
aF0
aF0
aF0
aaaaa(lp7444
VrotateX
p7445
a(lp7446
(lp7447
F0
aF0
a(lp7448
Vauto
p7449
aVauto
p7450
aF0
aF0
aF0
aF0
aaaaa(lp7451
VrotateY
p7452
a(lp7453
(lp7454
F0
aF0
a(lp7455
Vauto
p7456
aVauto
p7457
aF0
aF0
aF0
aF0
aaaaa(lp7458
VrotateZ
p7459
a(lp7460
(lp7461
F0
aF0
a(lp7462
Vauto
p7463
aVauto
p7464
aF0
aF0
aF0
aF0
aaaaaaaaa(lp7465
S'middle_l_poleVector'
p7466
a(lp7467
(lp7468
Na(lp7469
(lp7470
VtranslateX
p7471
a(lp7472
(lp7473
F0
aF0
a(lp7474
Vauto
p7475
aVauto
p7476
aF0
aF0
aF0
aF0
aaaaa(lp7477
VtranslateY
p7478
a(lp7479
(lp7480
F0
aF0
a(lp7481
Vauto
p7482
aVauto
p7483
aF0
aF0
aF0
aF0
aaaaa(lp7484
VtranslateZ
p7485
a(lp7486
(lp7487
F0
aF0
a(lp7488
Vauto
p7489
aVauto
p7490
aF0
aF0
aF0
aF0
aaaaa(lp7491
VrotateX
p7492
a(lp7493
(lp7494
F0
aF0
a(lp7495
Vauto
p7496
aVauto
p7497
aF0
aF0
aF0
aF0
aaaaa(lp7498
VrotateY
p7499
a(lp7500
(lp7501
F0
aF0
a(lp7502
Vauto
p7503
aVauto
p7504
aF0
aF0
aF0
aF0
aaaaa(lp7505
VrotateZ
p7506
a(lp7507
(lp7508
F0
aF0
a(lp7509
Vauto
p7510
aVauto
p7511
aF0
aF0
aF0
aF0
aaaaaaaaa(lp7512
S'middle_r_poleVector'
p7513
a(lp7514
(lp7515
Na(lp7516
(lp7517
VtranslateX
p7518
a(lp7519
(lp7520
F0
aF0
a(lp7521
Vauto
p7522
aVauto
p7523
aF0
aF0
aF0
aF0
aaaaa(lp7524
VtranslateY
p7525
a(lp7526
(lp7527
F0
aF0
a(lp7528
Vauto
p7529
aVauto
p7530
aF0
aF0
aF0
aF0
aaaaa(lp7531
VtranslateZ
p7532
a(lp7533
(lp7534
F0
aF0
a(lp7535
Vauto
p7536
aVauto
p7537
aF0
aF0
aF0
aF0
aaaaa(lp7538
VrotateX
p7539
a(lp7540
(lp7541
F0
aF0
a(lp7542
Vauto
p7543
aVauto
p7544
aF0
aF0
aF0
aF0
aaaaa(lp7545
VrotateY
p7546
a(lp7547
(lp7548
F0
aF0
a(lp7549
Vauto
p7550
aVauto
p7551
aF0
aF0
aF0
aF0
aaaaa(lp7552
VrotateZ
p7553
a(lp7554
(lp7555
F0
aF0
a(lp7556
Vauto
p7557
aVauto
p7558
aF0
aF0
aF0
aF0
aaaaaaaaa(lp7559
S'ring_l_poleVector'
p7560
a(lp7561
(lp7562
Na(lp7563
(lp7564
VtranslateX
p7565
a(lp7566
(lp7567
F0
aF0
a(lp7568
Vauto
p7569
aVauto
p7570
aF0
aF0
aF0
aF0
aaaaa(lp7571
VtranslateY
p7572
a(lp7573
(lp7574
F0
aF0
a(lp7575
Vauto
p7576
aVauto
p7577
aF0
aF0
aF0
aF0
aaaaa(lp7578
VtranslateZ
p7579
a(lp7580
(lp7581
F0
aF0
a(lp7582
Vauto
p7583
aVauto
p7584
aF0
aF0
aF0
aF0
aaaaa(lp7585
VrotateX
p7586
a(lp7587
(lp7588
F0
aF0
a(lp7589
Vauto
p7590
aVauto
p7591
aF0
aF0
aF0
aF0
aaaaa(lp7592
VrotateY
p7593
a(lp7594
(lp7595
F0
aF0
a(lp7596
Vauto
p7597
aVauto
p7598
aF0
aF0
aF0
aF0
aaaaa(lp7599
VrotateZ
p7600
a(lp7601
(lp7602
F0
aF0
a(lp7603
Vauto
p7604
aVauto
p7605
aF0
aF0
aF0
aF0
aaaaaaaaa(lp7606
S'ring_r_poleVector'
p7607
a(lp7608
(lp7609
Na(lp7610
(lp7611
VtranslateX
p7612
a(lp7613
(lp7614
F0
aF0
a(lp7615
Vauto
p7616
aVauto
p7617
aF0
aF0
aF0
aF0
aaaaa(lp7618
VtranslateY
p7619
a(lp7620
(lp7621
F0
aF0
a(lp7622
Vauto
p7623
aVauto
p7624
aF0
aF0
aF0
aF0
aaaaa(lp7625
VtranslateZ
p7626
a(lp7627
(lp7628
F0
aF0
a(lp7629
Vauto
p7630
aVauto
p7631
aF0
aF0
aF0
aF0
aaaaa(lp7632
VrotateX
p7633
a(lp7634
(lp7635
F0
aF0
a(lp7636
Vauto
p7637
aVauto
p7638
aF0
aF0
aF0
aF0
aaaaa(lp7639
VrotateY
p7640
a(lp7641
(lp7642
F0
aF0
a(lp7643
Vauto
p7644
aVauto
p7645
aF0
aF0
aF0
aF0
aaaaa(lp7646
VrotateZ
p7647
a(lp7648
(lp7649
F0
aF0
a(lp7650
Vauto
p7651
aVauto
p7652
aF0
aF0
aF0
aF0
aaaaaaaaa(lp7653
S'pinky_l_poleVector'
p7654
a(lp7655
(lp7656
Na(lp7657
(lp7658
VtranslateX
p7659
a(lp7660
(lp7661
F0
aF0
a(lp7662
Vauto
p7663
aVauto
p7664
aF0
aF0
aF0
aF0
aaaaa(lp7665
VtranslateY
p7666
a(lp7667
(lp7668
F0
aF0
a(lp7669
Vauto
p7670
aVauto
p7671
aF0
aF0
aF0
aF0
aaaaa(lp7672
VtranslateZ
p7673
a(lp7674
(lp7675
F0
aF0
a(lp7676
Vauto
p7677
aVauto
p7678
aF0
aF0
aF0
aF0
aaaaa(lp7679
VrotateX
p7680
a(lp7681
(lp7682
F0
aF0
a(lp7683
Vauto
p7684
aVauto
p7685
aF0
aF0
aF0
aF0
aaaaa(lp7686
VrotateY
p7687
a(lp7688
(lp7689
F0
aF0
a(lp7690
Vauto
p7691
aVauto
p7692
aF0
aF0
aF0
aF0
aaaaa(lp7693
VrotateZ
p7694
a(lp7695
(lp7696
F0
aF0
a(lp7697
Vauto
p7698
aVauto
p7699
aF0
aF0
aF0
aF0
aaaaaaaaa(lp7700
S'pinky_r_poleVector'
p7701
a(lp7702
(lp7703
Na(lp7704
(lp7705
VtranslateX
p7706
a(lp7707
(lp7708
F0
aF0
a(lp7709
Vauto
p7710
aVauto
p7711
aF0
aF0
aF0
aF0
aaaaa(lp7712
VtranslateY
p7713
a(lp7714
(lp7715
F0
aF0
a(lp7716
Vauto
p7717
aVauto
p7718
aF0
aF0
aF0
aF0
aaaaa(lp7719
VtranslateZ
p7720
a(lp7721
(lp7722
F0
aF0
a(lp7723
Vauto
p7724
aVauto
p7725
aF0
aF0
aF0
aF0
aaaaa(lp7726
VrotateX
p7727
a(lp7728
(lp7729
F0
aF0
a(lp7730
Vauto
p7731
aVauto
p7732
aF0
aF0
aF0
aF0
aaaaa(lp7733
VrotateY
p7734
a(lp7735
(lp7736
F0
aF0
a(lp7737
Vauto
p7738
aVauto
p7739
aF0
aF0
aF0
aF0
aaaaa(lp7740
VrotateZ
p7741
a(lp7742
(lp7743
F0
aF0
a(lp7744
Vauto
p7745
aVauto
p7746
aF0
aF0
aF0
aF0
aaaaaaaaa(lp7747
S'thumb_l_poleVector'
p7748
a(lp7749
(lp7750
Na(lp7751
(lp7752
VtranslateX
p7753
a(lp7754
(lp7755
F0
aF0
a(lp7756
Vauto
p7757
aVauto
p7758
aF0
aF0
aF0
aF0
aaaaa(lp7759
VtranslateY
p7760
a(lp7761
(lp7762
F0
aF0
a(lp7763
Vauto
p7764
aVauto
p7765
aF0
aF0
aF0
aF0
aaaaa(lp7766
VtranslateZ
p7767
a(lp7768
(lp7769
F0
aF0
a(lp7770
Vauto
p7771
aVauto
p7772
aF0
aF0
aF0
aF0
aaaaa(lp7773
VrotateX
p7774
a(lp7775
(lp7776
F0
aF0
a(lp7777
Vauto
p7778
aVauto
p7779
aF0
aF0
aF0
aF0
aaaaa(lp7780
VrotateY
p7781
a(lp7782
(lp7783
F0
aF0
a(lp7784
Vauto
p7785
aVauto
p7786
aF0
aF0
aF0
aF0
aaaaa(lp7787
VrotateZ
p7788
a(lp7789
(lp7790
F0
aF0
a(lp7791
Vauto
p7792
aVauto
p7793
aF0
aF0
aF0
aF0
aaaaaaaaa(lp7794
S'thumb_r_poleVector'
p7795
a(lp7796
(lp7797
Na(lp7798
(lp7799
VtranslateX
p7800
a(lp7801
(lp7802
F0
aF0
a(lp7803
Vauto
p7804
aVauto
p7805
aF0
aF0
aF0
aF0
aaaaa(lp7806
VtranslateY
p7807
a(lp7808
(lp7809
F0
aF0
a(lp7810
Vauto
p7811
aVauto
p7812
aF0
aF0
aF0
aF0
aaaaa(lp7813
VtranslateZ
p7814
a(lp7815
(lp7816
F0
aF0
a(lp7817
Vauto
p7818
aVauto
p7819
aF0
aF0
aF0
aF0
aaaaa(lp7820
VrotateX
p7821
a(lp7822
(lp7823
F0
aF0
a(lp7824
Vauto
p7825
aVauto
p7826
aF0
aF0
aF0
aF0
aaaaa(lp7827
VrotateY
p7828
a(lp7829
(lp7830
F0
aF0
a(lp7831
Vauto
p7832
aVauto
p7833
aF0
aF0
aF0
aF0
aaaaa(lp7834
VrotateZ
p7835
a(lp7836
(lp7837
F0
aF0
a(lp7838
Vauto
p7839
aVauto
p7840
aF0
aF0
aF0
aF0
aaaaaaaaa(lp7841
S'l_global_ik_anim'
p7842
a(lp7843
(lp7844
Na(lp7845
(lp7846
VtranslateX
p7847
a(lp7848
(lp7849
F0
aF0
a(lp7850
Vauto
p7851
aVauto
p7852
aF0
aF0
aF1
aF1
aaa(lp7853
F15
aF0
a(lp7854
Vauto
p7855
aVauto
p7856
aF0
aF0
aF1
aF1
aaa(lp7857
F30
aF0
a(lp7858
Vauto
p7859
aVauto
p7860
aF0
aF0
aF1
aF1
aaaaa(lp7861
VtranslateY
p7862
a(lp7863
(lp7864
F0
aF0
a(lp7865
Vauto
p7866
aVauto
p7867
aF0
aF0
aF1
aF1
aaa(lp7868
F15
aF0
a(lp7869
Vauto
p7870
aVauto
p7871
aF0
aF0
aF1
aF1
aaa(lp7872
F30
aF0
a(lp7873
Vauto
p7874
aVauto
p7875
aF0
aF0
aF1
aF1
aaaaa(lp7876
VtranslateZ
p7877
a(lp7878
(lp7879
F0
aF0
a(lp7880
Vauto
p7881
aVauto
p7882
aF0
aF0
aF1
aF1
aaa(lp7883
F15
aF0
a(lp7884
Vauto
p7885
aVauto
p7886
aF0
aF0
aF1
aF1
aaa(lp7887
F30
aF0
a(lp7888
Vauto
p7889
aVauto
p7890
aF0
aF0
aF1
aF1
aaaaa(lp7891
VrotateX
p7892
a(lp7893
(lp7894
F0
aF0
a(lp7895
Vauto
p7896
aVauto
p7897
aF0
aF0
aF1
aF1
aaa(lp7898
F15
aF0
a(lp7899
Vauto
p7900
aVauto
p7901
aF0
aF0
aF1
aF1
aaa(lp7902
F30
aF0
a(lp7903
Vauto
p7904
aVauto
p7905
aF0
aF0
aF1
aF1
aaaaa(lp7906
VrotateY
p7907
a(lp7908
(lp7909
F0
aF0
a(lp7910
Vauto
p7911
aVauto
p7912
aF0
aF0
aF1
aF1
aaa(lp7913
F15
aF0
a(lp7914
Vauto
p7915
aVauto
p7916
aF0
aF0
aF1
aF1
aaa(lp7917
F30
aF0
a(lp7918
Vauto
p7919
aVauto
p7920
aF0
aF0
aF1
aF1
aaaaa(lp7921
VrotateZ
p7922
a(lp7923
(lp7924
F0
aF0
a(lp7925
Vauto
p7926
aVauto
p7927
aF0
aF0
aF1
aF1
aaa(lp7928
F15
aF0
a(lp7929
Vauto
p7930
aVauto
p7931
aF0
aF0
aF1
aF1
aaa(lp7932
F30
aF0
a(lp7933
Vauto
p7934
aVauto
p7935
aF0
aF0
aF1
aF1
aaaaaaaaa(lp7936
S'r_global_ik_anim'
p7937
a(lp7938
(lp7939
Na(lp7940
(lp7941
VtranslateX
p7942
a(lp7943
(lp7944
F0
aF0
a(lp7945
Vauto
p7946
aVauto
p7947
aF0
aF0
aF1
aF1
aaa(lp7948
F15
aF0
a(lp7949
Vauto
p7950
aVauto
p7951
aF0
aF0
aF1
aF1
aaa(lp7952
F30
aF0
a(lp7953
Vauto
p7954
aVauto
p7955
aF0
aF0
aF1
aF1
aaaaa(lp7956
VtranslateY
p7957
a(lp7958
(lp7959
F0
aF0
a(lp7960
Vauto
p7961
aVauto
p7962
aF0
aF0
aF1
aF1
aaa(lp7963
F15
aF0
a(lp7964
Vauto
p7965
aVauto
p7966
aF0
aF0
aF1
aF1
aaa(lp7967
F30
aF0
a(lp7968
Vauto
p7969
aVauto
p7970
aF0
aF0
aF1
aF1
aaaaa(lp7971
VtranslateZ
p7972
a(lp7973
(lp7974
F0
aF0
a(lp7975
Vauto
p7976
aVauto
p7977
aF0
aF0
aF1
aF1
aaa(lp7978
F15
aF0
a(lp7979
Vauto
p7980
aVauto
p7981
aF0
aF0
aF1
aF1
aaa(lp7982
F30
aF0
a(lp7983
Vauto
p7984
aVauto
p7985
aF0
aF0
aF1
aF1
aaaaa(lp7986
VrotateX
p7987
a(lp7988
(lp7989
F0
aF0
a(lp7990
Vauto
p7991
aVauto
p7992
aF0
aF0
aF1
aF1
aaa(lp7993
F15
aF0
a(lp7994
Vauto
p7995
aVauto
p7996
aF0
aF0
aF1
aF1
aaa(lp7997
F30
aF0
a(lp7998
Vauto
p7999
aVauto
p8000
aF0
aF0
aF1
aF1
aaaaa(lp8001
VrotateY
p8002
a(lp8003
(lp8004
F0
aF0
a(lp8005
Vauto
p8006
aVauto
p8007
aF0
aF0
aF1
aF1
aaa(lp8008
F15
aF0
a(lp8009
Vauto
p8010
aVauto
p8011
aF0
aF0
aF1
aF1
aaa(lp8012
F30
aF0
a(lp8013
Vauto
p8014
aVauto
p8015
aF0
aF0
aF1
aF1
aaaaa(lp8016
VrotateZ
p8017
a(lp8018
(lp8019
F0
aF0
a(lp8020
Vauto
p8021
aVauto
p8022
aF0
aF0
aF1
aF1
aaa(lp8023
F15
aF0
a(lp8024
Vauto
p8025
aVauto
p8026
aF0
aF0
aF1
aF1
aaa(lp8027
F30
aF0
a(lp8028
Vauto
p8029
aVauto
p8030
aF0
aF0
aF1
aF1
aaaaaaaaa(lp8031
S'Rig_Settings'
p8032
a(lp8033
(lp8034
Na(lp8035
(lp8036
Vspine_ik
p8037
a(lp8038
(lp8039
F0
aF1
a(lp8040
Vauto
p8041
aVauto
p8042
aF0
aF0
aF0
aF0
aaaaa(lp8043
Vspine_fk
p8044
a(lp8045
(lp8046
F0
aF0
a(lp8047
Vauto
p8048
aVauto
p8049
aF0
aF0
aF0
aF0
aaaaa(lp8050
VlLegMode
p8051
a(lp8052
(lp8053
F0
aF1
a(lp8054
Vspline
p8055
aVstep
p8056
aF0
aF0
aF0
aF0
aaaaa(lp8057
VlThighTwistAmount
p8058
a(lp8059
(lp8060
F0
aF0.90000000000000002
a(lp8061
Vauto
p8062
aVauto
p8063
aF0
aF0
aF0
aF0
aaaaa(lp8064
VlCalfTwistAmount
p8065
a(lp8066
(lp8067
F0
aF0.5
a(lp8068
Vauto
p8069
aVauto
p8070
aF0
aF0
aF0
aF0
aaaaa(lp8071
VrLegMode
p8072
a(lp8073
(lp8074
F0
aF1
a(lp8075
Vspline
p8076
aVstep
p8077
aF0
aF0
aF0
aF0
aaaaa(lp8078
VrThighTwistAmount
p8079
a(lp8080
(lp8081
F0
aF0.90000000000000002
a(lp8082
Vauto
p8083
aVauto
p8084
aF0
aF0
aF0
aF0
aaaaa(lp8085
VrCalfTwistAmount
p8086
a(lp8087
(lp8088
F0
aF0.5
a(lp8089
Vauto
p8090
aVauto
p8091
aF0
aF0
aF0
aF0
aaaaa(lp8092
VlFkArmOrient
p8093
a(lp8094
(lp8095
F0
aF0
a(lp8096
Vspline
p8097
aVstep
p8098
aF0
aF0
aF0
aF0
aaaaa(lp8099
VlArmMode
p8100
a(lp8101
(lp8102
F0
aF1
a(lp8103
Vspline
p8104
aVstep
p8105
aF0
aF0
aF0
aF0
aaaaa(lp8106
VlClavMode
p8107
a(lp8108
(lp8109
F0
aF1
a(lp8110
Vspline
p8111
aVstep
p8112
aF0
aF0
aF0
aF0
aaaaa(lp8113
VltwistCtrlVis
p8114
a(lp8115
(lp8116
F0
aF0
a(lp8117
Vspline
p8118
aVstep
p8119
aF0
aF0
aF0
aF0
aaaaa(lp8120
VlUpperarmTwistAmount
p8121
a(lp8122
(lp8123
F0
aF0.90000000000000002
a(lp8124
Vauto
p8125
aVauto
p8126
aF0
aF0
aF0
aF0
aaaaa(lp8127
VltwistCtrlVisLower
p8128
a(lp8129
(lp8130
F0
aF0
a(lp8131
Vspline
p8132
aVstep
p8133
aF0
aF0
aF0
aF0
aaaaa(lp8134
VlForearmTwistAmount
p8135
a(lp8136
(lp8137
F0
aF0.5
a(lp8138
Vauto
p8139
aVauto
p8140
aF0
aF0
aF0
aF0
aaaaa(lp8141
VrFkArmOrient
p8142
a(lp8143
(lp8144
F0
aF0
a(lp8145
Vspline
p8146
aVstep
p8147
aF0
aF0
aF0
aF0
aaaaa(lp8148
VrArmMode
p8149
a(lp8150
(lp8151
F0
aF1
a(lp8152
Vspline
p8153
aVstep
p8154
aF0
aF0
aF0
aF0
aaaaa(lp8155
VrClavMode
p8156
a(lp8157
(lp8158
F0
aF1
a(lp8159
Vspline
p8160
aVstep
p8161
aF0
aF0
aF0
aF0
aaaaa(lp8162
VrtwistCtrlVis
p8163
a(lp8164
(lp8165
F0
aF0
a(lp8166
Vspline
p8167
aVstep
p8168
aF0
aF0
aF0
aF0
aaaaa(lp8169
VrUpperarmTwistAmount
p8170
a(lp8171
(lp8172
F0
aF0.90000000000000002
a(lp8173
Vauto
p8174
aVauto
p8175
aF0
aF0
aF0
aF0
aaaaa(lp8176
VrtwistCtrlVisLower
p8177
a(lp8178
(lp8179
F0
aF0
a(lp8180
Vspline
p8181
aVstep
p8182
aF0
aF0
aF0
aF0
aaaaa(lp8183
VrForearmTwistAmount
p8184
a(lp8185
(lp8186
F0
aF0.5
a(lp8187
Vauto
p8188
aVauto
p8189
aF0
aF0
aF0
aF0
aaaaaaaaa(lp8190
Vbigtoe_ik_ctrl_l_grp_space_switcher
p8191
a(lp8192
(lp8193
Na(lp8194
(lp8195
Vvisibility
p8196
a(lp8197
(lp8198
F0
aF1
a(lp8199
Vspline
p8200
aVstep
p8201
aF0
aF0
aF0
aF0
aaaaa(lp8202
VtranslateX
p8203
a(lp8204
(lp8205
F0
aF1.7763568394002505e-15
a(lp8206
Vauto
p8207
aVauto
p8208
aF0
aF0
aF0
aF0
aaaaa(lp8209
VtranslateY
p8210
a(lp8211
(lp8212
F0
aF-4.4408920985006262e-16
a(lp8213
Vauto
p8214
aVauto
p8215
aF0
aF0
aF0
aF0
aaaaa(lp8216
VtranslateZ
p8217
a(lp8218
(lp8219
F0
aF0
a(lp8220
Vauto
p8221
aVauto
p8222
aF0
aF0
aF0
aF0
aaaaa(lp8223
VrotateX
p8224
a(lp8225
(lp8226
F0
aF-7.9513867036587939e-16
a(lp8227
Vauto
p8228
aVauto
p8229
aF0
aF0
aF0
aF0
aaaaa(lp8230
VrotateY
p8231
a(lp8232
(lp8233
F0
aF-0
a(lp8234
Vauto
p8235
aVauto
p8236
aF0
aF0
aF0
aF0
aaaaa(lp8237
VrotateZ
p8238
a(lp8239
(lp8240
F0
aF0
a(lp8241
Vauto
p8242
aVauto
p8243
aF0
aF0
aF0
aF0
aaaaa(lp8244
VscaleX
p8245
a(lp8246
(lp8247
F0
aF1
a(lp8248
Vauto
p8249
aVauto
p8250
aF0
aF0
aF0
aF0
aaaaa(lp8251
VscaleY
p8252
a(lp8253
(lp8254
F0
aF0.99999999999999989
a(lp8255
Vauto
p8256
aVauto
p8257
aF0
aF0
aF0
aF0
aaaaa(lp8258
VscaleZ
p8259
a(lp8260
(lp8261
F0
aF0.99999999999999989
a(lp8262
Vauto
p8263
aVauto
p8264
aF0
aF0
aF0
aF0
aaaaa(lp8265
Vspace_world
p8266
a(lp8267
(lp8268
F0
aF0
a(lp8269
Vauto
p8270
aVauto
p8271
aF0
aF0
aF0
aF0
aaaaaaaaa(lp8272
Vbigtoe_ik_ctrl_r_grp_space_switcher
p8273
a(lp8274
(lp8275
Na(lp8276
(lp8277
Vvisibility
p8278
a(lp8279
(lp8280
F0
aF1
a(lp8281
Vspline
p8282
aVstep
p8283
aF0
aF0
aF0
aF0
aaaaa(lp8284
VtranslateX
p8285
a(lp8286
(lp8287
F0
aF1.7763568394002505e-15
a(lp8288
Vauto
p8289
aVauto
p8290
aF0
aF0
aF0
aF0
aaaaa(lp8291
VtranslateY
p8292
a(lp8293
(lp8294
F0
aF0
a(lp8295
Vauto
p8296
aVauto
p8297
aF0
aF0
aF0
aF0
aaaaa(lp8298
VtranslateZ
p8299
a(lp8300
(lp8301
F0
aF0
a(lp8302
Vauto
p8303
aVauto
p8304
aF0
aF0
aF0
aF0
aaaaa(lp8305
VrotateX
p8306
a(lp8307
(lp8308
F0
aF0
a(lp8309
Vauto
p8310
aVauto
p8311
aF0
aF0
aF0
aF0
aaaaa(lp8312
VrotateY
p8313
a(lp8314
(lp8315
F0
aF-9.9392333795734899e-17
a(lp8316
Vauto
p8317
aVauto
p8318
aF0
aF0
aF0
aF0
aaaaa(lp8319
VrotateZ
p8320
a(lp8321
(lp8322
F0
aF0
a(lp8323
Vauto
p8324
aVauto
p8325
aF0
aF0
aF0
aF0
aaaaa(lp8326
VscaleX
p8327
a(lp8328
(lp8329
F0
aF1
a(lp8330
Vauto
p8331
aVauto
p8332
aF0
aF0
aF0
aF0
aaaaa(lp8333
VscaleY
p8334
a(lp8335
(lp8336
F0
aF0.99999999999999989
a(lp8337
Vauto
p8338
aVauto
p8339
aF0
aF0
aF0
aF0
aaaaa(lp8340
VscaleZ
p8341
a(lp8342
(lp8343
F0
aF0.99999999999999989
a(lp8344
Vauto
p8345
aVauto
p8346
aF0
aF0
aF0
aF0
aaaaa(lp8347
Vspace_world
p8348
a(lp8349
(lp8350
F0
aF0
a(lp8351
Vauto
p8352
aVauto
p8353
aF0
aF0
aF0
aF0
aaaaaaaaa(lp8354
Vbody_anim_space_switcher
p8355
a(lp8356
(lp8357
Na(lp8358
(lp8359
Vvisibility
p8360
a(lp8361
(lp8362
F0
aF1
a(lp8363
Vspline
p8364
aVstep
p8365
aF0
aF0
aF0
aF0
aaaaa(lp8366
VtranslateX
p8367
a(lp8368
(lp8369
F0
aF0
a(lp8370
Vauto
p8371
aVauto
p8372
aF0
aF0
aF0
aF0
aaaaa(lp8373
VtranslateY
p8374
a(lp8375
(lp8376
F0
aF0
a(lp8377
Vauto
p8378
aVauto
p8379
aF0
aF0
aF0
aF0
aaaaa(lp8380
VtranslateZ
p8381
a(lp8382
(lp8383
F0
aF0
a(lp8384
Vauto
p8385
aVauto
p8386
aF0
aF0
aF0
aF0
aaaaa(lp8387
VrotateX
p8388
a(lp8389
(lp8390
F0
aF0
a(lp8391
Vauto
p8392
aVauto
p8393
aF0
aF0
aF0
aF0
aaaaa(lp8394
VrotateY
p8395
a(lp8396
(lp8397
F0
aF0
a(lp8398
Vauto
p8399
aVauto
p8400
aF0
aF0
aF0
aF0
aaaaa(lp8401
VrotateZ
p8402
a(lp8403
(lp8404
F0
aF0
a(lp8405
Vauto
p8406
aVauto
p8407
aF0
aF0
aF0
aF0
aaaaa(lp8408
VscaleX
p8409
a(lp8410
(lp8411
F0
aF1
a(lp8412
Vauto
p8413
aVauto
p8414
aF0
aF0
aF0
aF0
aaaaa(lp8415
VscaleY
p8416
a(lp8417
(lp8418
F0
aF1
a(lp8419
Vauto
p8420
aVauto
p8421
aF0
aF0
aF0
aF0
aaaaa(lp8422
VscaleZ
p8423
a(lp8424
(lp8425
F0
aF1
a(lp8426
Vauto
p8427
aVauto
p8428
aF0
aF0
aF0
aF0
aaaaa(lp8429
Vspace_world
p8430
a(lp8431
(lp8432
F0
aF0
a(lp8433
Vauto
p8434
aVauto
p8435
aF0
aF0
aF0
aF0
aaaaaaaaa(lp8436
Vchest_ik_anim_space_switcher
p8437
a(lp8438
(lp8439
Na(lp8440
(lp8441
Vvisibility
p8442
a(lp8443
(lp8444
F0
aF1
a(lp8445
Vspline
p8446
aVstep
p8447
aF0
aF0
aF0
aF0
aaaaa(lp8448
VtranslateX
p8449
a(lp8450
(lp8451
F0
aF0
a(lp8452
Vauto
p8453
aVauto
p8454
aF0
aF0
aF0
aF0
aaaaa(lp8455
VtranslateY
p8456
a(lp8457
(lp8458
F0
aF0
a(lp8459
Vauto
p8460
aVauto
p8461
aF0
aF0
aF0
aF0
aaaaa(lp8462
VtranslateZ
p8463
a(lp8464
(lp8465
F0
aF2.5243548967072378e-29
a(lp8466
Vauto
p8467
aVauto
p8468
aF0
aF0
aF0
aF0
aaaaa(lp8469
VrotateX
p8470
a(lp8471
(lp8472
F0
aF0
a(lp8473
Vauto
p8474
aVauto
p8475
aF0
aF0
aF0
aF0
aaaaa(lp8476
VrotateY
p8477
a(lp8478
(lp8479
F0
aF-1.1299600123008406e-29
a(lp8480
Vauto
p8481
aVauto
p8482
aF0
aF0
aF0
aF0
aaaaa(lp8483
VrotateZ
p8484
a(lp8485
(lp8486
F0
aF0
a(lp8487
Vauto
p8488
aVauto
p8489
aF0
aF0
aF0
aF0
aaaaa(lp8490
VscaleX
p8491
a(lp8492
(lp8493
F0
aF1
a(lp8494
Vauto
p8495
aVauto
p8496
aF0
aF0
aF0
aF0
aaaaa(lp8497
VscaleY
p8498
a(lp8499
(lp8500
F0
aF1
a(lp8501
Vauto
p8502
aVauto
p8503
aF0
aF0
aF0
aF0
aaaaa(lp8504
VscaleZ
p8505
a(lp8506
(lp8507
F0
aF1
a(lp8508
Vauto
p8509
aVauto
p8510
aF0
aF0
aF0
aF0
aaaaa(lp8511
Vspace_world
p8512
a(lp8513
(lp8514
F0
aF0
a(lp8515
Vauto
p8516
aVauto
p8517
aF0
aF0
aF0
aF0
aaaaa(lp8518
Vspace_chest_ik_world_aligned
p8519
a(lp8520
(lp8521
F0
aF0
a(lp8522
Vauto
p8523
aVauto
p8524
aF0
aF0
aF0
aF0
aaaaaaaaa(lp8525
Vik_elbow_l_anim_space_switcher
p8526
a(lp8527
(lp8528
Na(lp8529
(lp8530
VtranslateX
p8531
a(lp8532
(lp8533
F0
aF0
a(lp8534
Vauto
p8535
aVauto
p8536
aF0
aF0
aF0
aF0
aaaaa(lp8537
VtranslateY
p8538
a(lp8539
(lp8540
F0
aF0
a(lp8541
Vauto
p8542
aVauto
p8543
aF0
aF0
aF0
aF0
aaaaa(lp8544
VtranslateZ
p8545
a(lp8546
(lp8547
F0
aF0
a(lp8548
Vauto
p8549
aVauto
p8550
aF0
aF0
aF0
aF0
aaaaa(lp8551
VrotateX
p8552
a(lp8553
(lp8554
F0
aF0
a(lp8555
Vauto
p8556
aVauto
p8557
aF0
aF0
aF0
aF0
aaaaa(lp8558
VrotateY
p8559
a(lp8560
(lp8561
F0
aF0
a(lp8562
Vauto
p8563
aVauto
p8564
aF0
aF0
aF0
aF0
aaaaa(lp8565
VrotateZ
p8566
a(lp8567
(lp8568
F0
aF0
a(lp8569
Vauto
p8570
aVauto
p8571
aF0
aF0
aF0
aF0
aaaaa(lp8572
VscaleX
p8573
a(lp8574
(lp8575
F0
aF1
a(lp8576
Vauto
p8577
aVauto
p8578
aF0
aF0
aF0
aF0
aaaaa(lp8579
VscaleY
p8580
a(lp8581
(lp8582
F0
aF1
a(lp8583
Vauto
p8584
aVauto
p8585
aF0
aF0
aF0
aF0
aaaaa(lp8586
VscaleZ
p8587
a(lp8588
(lp8589
F0
aF1
a(lp8590
Vauto
p8591
aVauto
p8592
aF0
aF0
aF0
aF0
aaaaa(lp8593
Vspace_world
p8594
a(lp8595
(lp8596
F0
aF0
a(lp8597
Vauto
p8598
aVauto
p8599
aF0
aF0
aF0
aF0
aaaaa(lp8600
Vspace_body_anim
p8601
a(lp8602
(lp8603
F0
aF0
a(lp8604
Vauto
p8605
aVauto
p8606
aF0
aF0
aF0
aF0
aaaaa(lp8607
Vspace_chest_ik_anim
p8608
a(lp8609
(lp8610
F0
aF0
a(lp8611
Vauto
p8612
aVauto
p8613
aF0
aF0
aF0
aF0
aaaaaaaaa(lp8614
Vik_elbow_r_anim_space_switcher
p8615
a(lp8616
(lp8617
Na(lp8618
(lp8619
VtranslateX
p8620
a(lp8621
(lp8622
F0
aF0
a(lp8623
Vauto
p8624
aVauto
p8625
aF0
aF0
aF0
aF0
aaaaa(lp8626
VtranslateY
p8627
a(lp8628
(lp8629
F0
aF0
a(lp8630
Vauto
p8631
aVauto
p8632
aF0
aF0
aF0
aF0
aaaaa(lp8633
VtranslateZ
p8634
a(lp8635
(lp8636
F0
aF0
a(lp8637
Vauto
p8638
aVauto
p8639
aF0
aF0
aF0
aF0
aaaaa(lp8640
VrotateX
p8641
a(lp8642
(lp8643
F0
aF0
a(lp8644
Vauto
p8645
aVauto
p8646
aF0
aF0
aF0
aF0
aaaaa(lp8647
VrotateY
p8648
a(lp8649
(lp8650
F0
aF0
a(lp8651
Vauto
p8652
aVauto
p8653
aF0
aF0
aF0
aF0
aaaaa(lp8654
VrotateZ
p8655
a(lp8656
(lp8657
F0
aF0
a(lp8658
Vauto
p8659
aVauto
p8660
aF0
aF0
aF0
aF0
aaaaa(lp8661
VscaleX
p8662
a(lp8663
(lp8664
F0
aF1
a(lp8665
Vauto
p8666
aVauto
p8667
aF0
aF0
aF0
aF0
aaaaa(lp8668
VscaleY
p8669
a(lp8670
(lp8671
F0
aF1
a(lp8672
Vauto
p8673
aVauto
p8674
aF0
aF0
aF0
aF0
aaaaa(lp8675
VscaleZ
p8676
a(lp8677
(lp8678
F0
aF1
a(lp8679
Vauto
p8680
aVauto
p8681
aF0
aF0
aF0
aF0
aaaaa(lp8682
Vspace_world
p8683
a(lp8684
(lp8685
F0
aF0
a(lp8686
Vauto
p8687
aVauto
p8688
aF0
aF0
aF0
aF0
aaaaa(lp8689
Vspace_body_anim
p8690
a(lp8691
(lp8692
F0
aF0
a(lp8693
Vauto
p8694
aVauto
p8695
aF0
aF0
aF0
aF0
aaaaa(lp8696
Vspace_chest_ik_anim
p8697
a(lp8698
(lp8699
F0
aF0
a(lp8700
Vauto
p8701
aVauto
p8702
aF0
aF0
aF0
aF0
aaaaaaaaa(lp8703
Vik_foot_anim_l_space_switcher
p8704
a(lp8705
(lp8706
Na(lp8707
(lp8708
Vvisibility
p8709
a(lp8710
(lp8711
F0
aF1
a(lp8712
Vspline
p8713
aVstep
p8714
aF0
aF0
aF0
aF0
aaaaa(lp8715
VtranslateX
p8716
a(lp8717
(lp8718
F0
aF0
a(lp8719
Vauto
p8720
aVauto
p8721
aF0
aF0
aF0
aF0
aaaaa(lp8722
VtranslateY
p8723
a(lp8724
(lp8725
F0
aF0
a(lp8726
Vauto
p8727
aVauto
p8728
aF0
aF0
aF0
aF0
aaaaa(lp8729
VtranslateZ
p8730
a(lp8731
(lp8732
F0
aF0
a(lp8733
Vauto
p8734
aVauto
p8735
aF0
aF0
aF0
aF0
aaaaa(lp8736
VrotateX
p8737
a(lp8738
(lp8739
F0
aF0
a(lp8740
Vauto
p8741
aVauto
p8742
aF0
aF0
aF0
aF0
aaaaa(lp8743
VrotateY
p8744
a(lp8745
(lp8746
F0
aF0
a(lp8747
Vauto
p8748
aVauto
p8749
aF0
aF0
aF0
aF0
aaaaa(lp8750
VrotateZ
p8751
a(lp8752
(lp8753
F0
aF0
a(lp8754
Vauto
p8755
aVauto
p8756
aF0
aF0
aF0
aF0
aaaaa(lp8757
VscaleX
p8758
a(lp8759
(lp8760
F0
aF1
a(lp8761
Vauto
p8762
aVauto
p8763
aF0
aF0
aF0
aF0
aaaaa(lp8764
VscaleY
p8765
a(lp8766
(lp8767
F0
aF1
a(lp8768
Vauto
p8769
aVauto
p8770
aF0
aF0
aF0
aF0
aaaaa(lp8771
VscaleZ
p8772
a(lp8773
(lp8774
F0
aF1
a(lp8775
Vauto
p8776
aVauto
p8777
aF0
aF0
aF0
aF0
aaaaa(lp8778
Vspace_world
p8779
a(lp8780
(lp8781
F0
aF0
a(lp8782
Vauto
p8783
aVauto
p8784
aF0
aF0
aF0
aF0
aaaaa(lp8785
Vspace_body_anim
p8786
a(lp8787
(lp8788
F0
aF0
a(lp8789
Vauto
p8790
aVauto
p8791
aF0
aF0
aF0
aF0
aaaaaaaaa(lp8792
Vik_foot_anim_r_space_switcher
p8793
a(lp8794
(lp8795
Na(lp8796
(lp8797
Vvisibility
p8798
a(lp8799
(lp8800
F0
aF1
a(lp8801
Vspline
p8802
aVstep
p8803
aF0
aF0
aF0
aF0
aaaaa(lp8804
VtranslateX
p8805
a(lp8806
(lp8807
F0
aF0
a(lp8808
Vauto
p8809
aVauto
p8810
aF0
aF0
aF0
aF0
aaaaa(lp8811
VtranslateY
p8812
a(lp8813
(lp8814
F0
aF0
a(lp8815
Vauto
p8816
aVauto
p8817
aF0
aF0
aF0
aF0
aaaaa(lp8818
VtranslateZ
p8819
a(lp8820
(lp8821
F0
aF0
a(lp8822
Vauto
p8823
aVauto
p8824
aF0
aF0
aF0
aF0
aaaaa(lp8825
VrotateX
p8826
a(lp8827
(lp8828
F0
aF0
a(lp8829
Vauto
p8830
aVauto
p8831
aF0
aF0
aF0
aF0
aaaaa(lp8832
VrotateY
p8833
a(lp8834
(lp8835
F0
aF0
a(lp8836
Vauto
p8837
aVauto
p8838
aF0
aF0
aF0
aF0
aaaaa(lp8839
VrotateZ
p8840
a(lp8841
(lp8842
F0
aF0
a(lp8843
Vauto
p8844
aVauto
p8845
aF0
aF0
aF0
aF0
aaaaa(lp8846
VscaleX
p8847
a(lp8848
(lp8849
F0
aF1
a(lp8850
Vauto
p8851
aVauto
p8852
aF0
aF0
aF0
aF0
aaaaa(lp8853
VscaleY
p8854
a(lp8855
(lp8856
F0
aF1
a(lp8857
Vauto
p8858
aVauto
p8859
aF0
aF0
aF0
aF0
aaaaa(lp8860
VscaleZ
p8861
a(lp8862
(lp8863
F0
aF1
a(lp8864
Vauto
p8865
aVauto
p8866
aF0
aF0
aF0
aF0
aaaaa(lp8867
Vspace_world
p8868
a(lp8869
(lp8870
F0
aF0
a(lp8871
Vauto
p8872
aVauto
p8873
aF0
aF0
aF0
aF0
aaaaa(lp8874
Vspace_body_anim
p8875
a(lp8876
(lp8877
F0
aF0
a(lp8878
Vauto
p8879
aVauto
p8880
aF0
aF0
aF0
aF0
aaaaaaaaa(lp8881
Vik_wrist_l_anim_space_switcher
p8882
a(lp8883
(lp8884
Na(lp8885
(lp8886
VtranslateX
p8887
a(lp8888
(lp8889
F0
aF0
a(lp8890
Vauto
p8891
aVauto
p8892
aF0
aF0
aF0
aF0
aaaaa(lp8893
VtranslateY
p8894
a(lp8895
(lp8896
F0
aF0
a(lp8897
Vauto
p8898
aVauto
p8899
aF0
aF0
aF0
aF0
aaaaa(lp8900
VtranslateZ
p8901
a(lp8902
(lp8903
F0
aF0
a(lp8904
Vauto
p8905
aVauto
p8906
aF0
aF0
aF0
aF0
aaaaa(lp8907
VrotateX
p8908
a(lp8909
(lp8910
F0
aF0
a(lp8911
Vauto
p8912
aVauto
p8913
aF0
aF0
aF0
aF0
aaaaa(lp8914
VrotateY
p8915
a(lp8916
(lp8917
F0
aF0
a(lp8918
Vauto
p8919
aVauto
p8920
aF0
aF0
aF0
aF0
aaaaa(lp8921
VrotateZ
p8922
a(lp8923
(lp8924
F0
aF0
a(lp8925
Vauto
p8926
aVauto
p8927
aF0
aF0
aF0
aF0
aaaaa(lp8928
VscaleX
p8929
a(lp8930
(lp8931
F0
aF1
a(lp8932
Vauto
p8933
aVauto
p8934
aF0
aF0
aF0
aF0
aaaaa(lp8935
VscaleY
p8936
a(lp8937
(lp8938
F0
aF1
a(lp8939
Vauto
p8940
aVauto
p8941
aF0
aF0
aF0
aF0
aaaaa(lp8942
VscaleZ
p8943
a(lp8944
(lp8945
F0
aF1
a(lp8946
Vauto
p8947
aVauto
p8948
aF0
aF0
aF0
aF0
aaaaa(lp8949
Vspace_world
p8950
a(lp8951
(lp8952
F0
aF0
a(lp8953
Vauto
p8954
aVauto
p8955
aF0
aF0
aF0
aF0
aaaaa(lp8956
Vspace_body_anim
p8957
a(lp8958
(lp8959
F0
aF0
a(lp8960
Vauto
p8961
aVauto
p8962
aF0
aF0
aF0
aF0
aaaaa(lp8963
Vspace_head_fk_anim
p8964
a(lp8965
(lp8966
F0
aF0
a(lp8967
Vauto
p8968
aVauto
p8969
aF0
aF0
aF0
aF0
aaaaa(lp8970
Vspace_chest_ik_anim
p8971
a(lp8972
(lp8973
F0
aF0
a(lp8974
Vauto
p8975
aVauto
p8976
aF0
aF0
aF0
aF0
aaaaaaaaa(lp8977
Vik_wrist_r_anim_space_switcher
p8978
a(lp8979
(lp8980
Na(lp8981
(lp8982
VtranslateX
p8983
a(lp8984
(lp8985
F0
aF0
a(lp8986
Vauto
p8987
aVauto
p8988
aF0
aF0
aF0
aF0
aaaaa(lp8989
VtranslateY
p8990
a(lp8991
(lp8992
F0
aF0
a(lp8993
Vauto
p8994
aVauto
p8995
aF0
aF0
aF0
aF0
aaaaa(lp8996
VtranslateZ
p8997
a(lp8998
(lp8999
F0
aF0
a(lp9000
Vauto
p9001
aVauto
p9002
aF0
aF0
aF0
aF0
aaaaa(lp9003
VrotateX
p9004
a(lp9005
(lp9006
F0
aF0
a(lp9007
Vauto
p9008
aVauto
p9009
aF0
aF0
aF0
aF0
aaaaa(lp9010
VrotateY
p9011
a(lp9012
(lp9013
F0
aF0
a(lp9014
Vauto
p9015
aVauto
p9016
aF0
aF0
aF0
aF0
aaaaa(lp9017
VrotateZ
p9018
a(lp9019
(lp9020
F0
aF0
a(lp9021
Vauto
p9022
aVauto
p9023
aF0
aF0
aF0
aF0
aaaaa(lp9024
VscaleX
p9025
a(lp9026
(lp9027
F0
aF1
a(lp9028
Vauto
p9029
aVauto
p9030
aF0
aF0
aF0
aF0
aaaaa(lp9031
VscaleY
p9032
a(lp9033
(lp9034
F0
aF1
a(lp9035
Vauto
p9036
aVauto
p9037
aF0
aF0
aF0
aF0
aaaaa(lp9038
VscaleZ
p9039
a(lp9040
(lp9041
F0
aF1
a(lp9042
Vauto
p9043
aVauto
p9044
aF0
aF0
aF0
aF0
aaaaa(lp9045
Vspace_world
p9046
a(lp9047
(lp9048
F0
aF0
a(lp9049
Vauto
p9050
aVauto
p9051
aF0
aF0
aF0
aF0
aaaaa(lp9052
Vspace_body_anim
p9053
a(lp9054
(lp9055
F0
aF0
a(lp9056
Vauto
p9057
aVauto
p9058
aF0
aF0
aF0
aF0
aaaaa(lp9059
Vspace_head_fk_anim
p9060
a(lp9061
(lp9062
F0
aF0
a(lp9063
Vauto
p9064
aVauto
p9065
aF0
aF0
aF0
aF0
aaaaa(lp9066
Vspace_chest_ik_anim
p9067
a(lp9068
(lp9069
F0
aF0
a(lp9070
Vauto
p9071
aVauto
p9072
aF0
aF0
aF0
aF0
aaaaaaaaa(lp9073
Vindex_ik_ctrl_l_grp_space_switcher
p9074
a(lp9075
(lp9076
Na(lp9077
(lp9078
Vvisibility
p9079
a(lp9080
(lp9081
F0
aF1
a(lp9082
Vspline
p9083
aVstep
p9084
aF0
aF0
aF0
aF0
aaaaa(lp9085
VtranslateX
p9086
a(lp9087
(lp9088
F0
aF0
a(lp9089
Vauto
p9090
aVauto
p9091
aF0
aF0
aF0
aF0
aaaaa(lp9092
VtranslateY
p9093
a(lp9094
(lp9095
F0
aF-4.4408920985006262e-16
a(lp9096
Vauto
p9097
aVauto
p9098
aF0
aF0
aF0
aF0
aaaaa(lp9099
VtranslateZ
p9100
a(lp9101
(lp9102
F0
aF0
a(lp9103
Vauto
p9104
aVauto
p9105
aF0
aF0
aF0
aF0
aaaaa(lp9106
VrotateX
p9107
a(lp9108
(lp9109
F0
aF0
a(lp9110
Vauto
p9111
aVauto
p9112
aF0
aF0
aF0
aF0
aaaaa(lp9113
VrotateY
p9114
a(lp9115
(lp9116
F0
aF3.6650923087177251e-16
a(lp9117
Vauto
p9118
aVauto
p9119
aF0
aF0
aF0
aF0
aaaaa(lp9120
VrotateZ
p9121
a(lp9122
(lp9123
F0
aF7.9513867036587919e-16
a(lp9124
Vauto
p9125
aVauto
p9126
aF0
aF0
aF0
aF0
aaaaa(lp9127
VscaleX
p9128
a(lp9129
(lp9130
F0
aF1
a(lp9131
Vauto
p9132
aVauto
p9133
aF0
aF0
aF0
aF0
aaaaa(lp9134
VscaleY
p9135
a(lp9136
(lp9137
F0
aF1
a(lp9138
Vauto
p9139
aVauto
p9140
aF0
aF0
aF0
aF0
aaaaa(lp9141
VscaleZ
p9142
a(lp9143
(lp9144
F0
aF1.0000000000000002
a(lp9145
Vauto
p9146
aVauto
p9147
aF0
aF0
aF0
aF0
aaaaa(lp9148
Vspace_world
p9149
a(lp9150
(lp9151
F0
aF0
a(lp9152
Vauto
p9153
aVauto
p9154
aF0
aF0
aF0
aF0
aaaaaaaaa(lp9155
Vindex_ik_ctrl_r_grp_space_switcher
p9156
a(lp9157
(lp9158
Na(lp9159
(lp9160
Vvisibility
p9161
a(lp9162
(lp9163
F0
aF1
a(lp9164
Vspline
p9165
aVstep
p9166
aF0
aF0
aF0
aF0
aaaaa(lp9167
VtranslateX
p9168
a(lp9169
(lp9170
F0
aF-1.7763568394002505e-15
a(lp9171
Vauto
p9172
aVauto
p9173
aF0
aF0
aF0
aF0
aaaaa(lp9174
VtranslateY
p9175
a(lp9176
(lp9177
F0
aF-4.4408920985006262e-16
a(lp9178
Vauto
p9179
aVauto
p9180
aF0
aF0
aF0
aF0
aaaaa(lp9181
VtranslateZ
p9182
a(lp9183
(lp9184
F0
aF-8.8817841970012523e-16
a(lp9185
Vauto
p9186
aVauto
p9187
aF0
aF0
aF0
aF0
aaaaa(lp9188
VrotateX
p9189
a(lp9190
(lp9191
F0
aF-9.9392333795734899e-17
a(lp9192
Vauto
p9193
aVauto
p9194
aF0
aF0
aF0
aF0
aaaaa(lp9195
VrotateY
p9196
a(lp9197
(lp9198
F0
aF6.2120208622334312e-17
a(lp9199
Vauto
p9200
aVauto
p9201
aF0
aF0
aF0
aF0
aaaaa(lp9202
VrotateZ
p9203
a(lp9204
(lp9205
F0
aF7.9513867036587919e-16
a(lp9206
Vauto
p9207
aVauto
p9208
aF0
aF0
aF0
aF0
aaaaa(lp9209
VscaleX
p9210
a(lp9211
(lp9212
F0
aF1
a(lp9213
Vauto
p9214
aVauto
p9215
aF0
aF0
aF0
aF0
aaaaa(lp9216
VscaleY
p9217
a(lp9218
(lp9219
F0
aF1
a(lp9220
Vauto
p9221
aVauto
p9222
aF0
aF0
aF0
aF0
aaaaa(lp9223
VscaleZ
p9224
a(lp9225
(lp9226
F0
aF1
a(lp9227
Vauto
p9228
aVauto
p9229
aF0
aF0
aF0
aF0
aaaaa(lp9230
Vspace_world
p9231
a(lp9232
(lp9233
F0
aF0
a(lp9234
Vauto
p9235
aVauto
p9236
aF0
aF0
aF0
aF0
aaaaaaaaa(lp9237
Vl_global_ik_anim_space_switcher
p9238
a(lp9239
(lp9240
Na(lp9241
(lp9242
Vvisibility
p9243
a(lp9244
(lp9245
F0
aF1
a(lp9246
Vspline
p9247
aVstep
p9248
aF0
aF0
aF0
aF0
aaaaa(lp9249
VtranslateX
p9250
a(lp9251
(lp9252
F0
aF0
a(lp9253
Vauto
p9254
aVauto
p9255
aF0
aF0
aF0
aF0
aaaaa(lp9256
VtranslateY
p9257
a(lp9258
(lp9259
F0
aF0
a(lp9260
Vauto
p9261
aVauto
p9262
aF0
aF0
aF0
aF0
aaaaa(lp9263
VtranslateZ
p9264
a(lp9265
(lp9266
F0
aF0
a(lp9267
Vauto
p9268
aVauto
p9269
aF0
aF0
aF0
aF0
aaaaa(lp9270
VrotateX
p9271
a(lp9272
(lp9273
F0
aF0
a(lp9274
Vauto
p9275
aVauto
p9276
aF0
aF0
aF0
aF0
aaaaa(lp9277
VrotateY
p9278
a(lp9279
(lp9280
F0
aF0
a(lp9281
Vauto
p9282
aVauto
p9283
aF0
aF0
aF0
aF0
aaaaa(lp9284
VrotateZ
p9285
a(lp9286
(lp9287
F0
aF0
a(lp9288
Vauto
p9289
aVauto
p9290
aF0
aF0
aF0
aF0
aaaaa(lp9291
VscaleX
p9292
a(lp9293
(lp9294
F0
aF1
a(lp9295
Vauto
p9296
aVauto
p9297
aF0
aF0
aF0
aF0
aaaaa(lp9298
VscaleY
p9299
a(lp9300
(lp9301
F0
aF1
a(lp9302
Vauto
p9303
aVauto
p9304
aF0
aF0
aF0
aF0
aaaaa(lp9305
VscaleZ
p9306
a(lp9307
(lp9308
F0
aF1
a(lp9309
Vauto
p9310
aVauto
p9311
aF0
aF0
aF0
aF0
aaaaa(lp9312
Vspace_world
p9313
a(lp9314
(lp9315
F0
aF0
a(lp9316
Vauto
p9317
aVauto
p9318
aF0
aF0
aF0
aF0
aaaaaaaaa(lp9319
Vmaster_anim_space_switcher
p9320
a(lp9321
(lp9322
Na(lp9323
(lp9324
Vvisibility
p9325
a(lp9326
(lp9327
F0
aF1
a(lp9328
Vspline
p9329
aVstep
p9330
aF0
aF0
aF0
aF0
aaaaa(lp9331
VtranslateX
p9332
a(lp9333
(lp9334
F0
aF0
a(lp9335
Vauto
p9336
aVauto
p9337
aF0
aF0
aF0
aF0
aaaaa(lp9338
VtranslateY
p9339
a(lp9340
(lp9341
F0
aF0
a(lp9342
Vauto
p9343
aVauto
p9344
aF0
aF0
aF0
aF0
aaaaa(lp9345
VtranslateZ
p9346
a(lp9347
(lp9348
F0
aF0
a(lp9349
Vauto
p9350
aVauto
p9351
aF0
aF0
aF0
aF0
aaaaa(lp9352
VrotateX
p9353
a(lp9354
(lp9355
F0
aF0
a(lp9356
Vauto
p9357
aVauto
p9358
aF0
aF0
aF0
aF0
aaaaa(lp9359
VrotateY
p9360
a(lp9361
(lp9362
F0
aF0
a(lp9363
Vauto
p9364
aVauto
p9365
aF0
aF0
aF0
aF0
aaaaa(lp9366
VrotateZ
p9367
a(lp9368
(lp9369
F0
aF0
a(lp9370
Vauto
p9371
aVauto
p9372
aF0
aF0
aF0
aF0
aaaaa(lp9373
VscaleX
p9374
a(lp9375
(lp9376
F0
aF1
a(lp9377
Vauto
p9378
aVauto
p9379
aF0
aF0
aF0
aF0
aaaaa(lp9380
VscaleY
p9381
a(lp9382
(lp9383
F0
aF1
a(lp9384
Vauto
p9385
aVauto
p9386
aF0
aF0
aF0
aF0
aaaaa(lp9387
VscaleZ
p9388
a(lp9389
(lp9390
F0
aF1
a(lp9391
Vauto
p9392
aVauto
p9393
aF0
aF0
aF0
aF0
aaaaa(lp9394
Vspace_world
p9395
a(lp9396
(lp9397
F0
aF0
a(lp9398
Vauto
p9399
aVauto
p9400
aF0
aF0
aF0
aF0
aaaaaaaaa(lp9401
Vmiddle_ik_ctrl_l_grp_space_switcher
p9402
a(lp9403
(lp9404
Na(lp9405
(lp9406
Vvisibility
p9407
a(lp9408
(lp9409
F0
aF1
a(lp9410
Vspline
p9411
aVstep
p9412
aF0
aF0
aF0
aF0
aaaaa(lp9413
VtranslateX
p9414
a(lp9415
(lp9416
F0
aF0
a(lp9417
Vauto
p9418
aVauto
p9419
aF0
aF0
aF0
aF0
aaaaa(lp9420
VtranslateY
p9421
a(lp9422
(lp9423
F0
aF8.8817841970012523e-16
a(lp9424
Vauto
p9425
aVauto
p9426
aF0
aF0
aF0
aF0
aaaaa(lp9427
VtranslateZ
p9428
a(lp9429
(lp9430
F0
aF1.7763568394002505e-15
a(lp9431
Vauto
p9432
aVauto
p9433
aF0
aF0
aF0
aF0
aaaaa(lp9434
VrotateX
p9435
a(lp9436
(lp9437
F0
aF9.9392333795734899e-17
a(lp9438
Vauto
p9439
aVauto
p9440
aF0
aF0
aF0
aF0
aaaaa(lp9441
VrotateY
p9442
a(lp9443
(lp9444
F0
aF-3.8514529345847282e-16
a(lp9445
Vauto
p9446
aVauto
p9447
aF0
aF0
aF0
aF0
aaaaa(lp9448
VrotateZ
p9449
a(lp9450
(lp9451
F0
aF3.1805546814635176e-15
a(lp9452
Vauto
p9453
aVauto
p9454
aF0
aF0
aF0
aF0
aaaaa(lp9455
VscaleX
p9456
a(lp9457
(lp9458
F0
aF0.99999999999999989
a(lp9459
Vauto
p9460
aVauto
p9461
aF0
aF0
aF0
aF0
aaaaa(lp9462
VscaleY
p9463
a(lp9464
(lp9465
F0
aF1
a(lp9466
Vauto
p9467
aVauto
p9468
aF0
aF0
aF0
aF0
aaaaa(lp9469
VscaleZ
p9470
a(lp9471
(lp9472
F0
aF1
a(lp9473
Vauto
p9474
aVauto
p9475
aF0
aF0
aF0
aF0
aaaaa(lp9476
Vspace_world
p9477
a(lp9478
(lp9479
F0
aF0
a(lp9480
Vauto
p9481
aVauto
p9482
aF0
aF0
aF0
aF0
aaaaaaaaa(lp9483
Vmiddle_ik_ctrl_r_grp_space_switcher
p9484
a(lp9485
(lp9486
Na(lp9487
(lp9488
Vvisibility
p9489
a(lp9490
(lp9491
F0
aF1
a(lp9492
Vspline
p9493
aVstep
p9494
aF0
aF0
aF0
aF0
aaaaa(lp9495
VtranslateX
p9496
a(lp9497
(lp9498
F0
aF0
a(lp9499
Vauto
p9500
aVauto
p9501
aF0
aF0
aF0
aF0
aaaaa(lp9502
VtranslateY
p9503
a(lp9504
(lp9505
F0
aF8.8817841970012523e-16
a(lp9506
Vauto
p9507
aVauto
p9508
aF0
aF0
aF0
aF0
aaaaa(lp9509
VtranslateZ
p9510
a(lp9511
(lp9512
F0
aF8.8817841970012523e-16
a(lp9513
Vauto
p9514
aVauto
p9515
aF0
aF0
aF0
aF0
aaaaa(lp9516
VrotateX
p9517
a(lp9518
(lp9519
F0
aF-4.9696166897867449e-17
a(lp9520
Vauto
p9521
aVauto
p9522
aF0
aF0
aF0
aF0
aaaaa(lp9523
VrotateY
p9524
a(lp9525
(lp9526
F0
aF5.3423379415207502e-16
a(lp9527
Vauto
p9528
aVauto
p9529
aF0
aF0
aF0
aF0
aaaaa(lp9530
VrotateZ
p9531
a(lp9532
(lp9533
F0
aF0
a(lp9534
Vauto
p9535
aVauto
p9536
aF0
aF0
aF0
aF0
aaaaa(lp9537
VscaleX
p9538
a(lp9539
(lp9540
F0
aF1.0000000000000002
a(lp9541
Vauto
p9542
aVauto
p9543
aF0
aF0
aF0
aF0
aaaaa(lp9544
VscaleY
p9545
a(lp9546
(lp9547
F0
aF1
a(lp9548
Vauto
p9549
aVauto
p9550
aF0
aF0
aF0
aF0
aaaaa(lp9551
VscaleZ
p9552
a(lp9553
(lp9554
F0
aF1.0000000000000002
a(lp9555
Vauto
p9556
aVauto
p9557
aF0
aF0
aF0
aF0
aaaaa(lp9558
Vspace_world
p9559
a(lp9560
(lp9561
F0
aF0
a(lp9562
Vauto
p9563
aVauto
p9564
aF0
aF0
aF0
aF0
aaaaaaaaa(lp9565
Vr_global_ik_anim_space_switcher
p9566
a(lp9567
(lp9568
Na(lp9569
(lp9570
Vvisibility
p9571
a(lp9572
(lp9573
F0
aF1
a(lp9574
Vspline
p9575
aVstep
p9576
aF0
aF0
aF0
aF0
aaaaa(lp9577
VtranslateX
p9578
a(lp9579
(lp9580
F0
aF0
a(lp9581
Vauto
p9582
aVauto
p9583
aF0
aF0
aF0
aF0
aaaaa(lp9584
VtranslateY
p9585
a(lp9586
(lp9587
F0
aF0
a(lp9588
Vauto
p9589
aVauto
p9590
aF0
aF0
aF0
aF0
aaaaa(lp9591
VtranslateZ
p9592
a(lp9593
(lp9594
F0
aF0
a(lp9595
Vauto
p9596
aVauto
p9597
aF0
aF0
aF0
aF0
aaaaa(lp9598
VrotateX
p9599
a(lp9600
(lp9601
F0
aF0
a(lp9602
Vauto
p9603
aVauto
p9604
aF0
aF0
aF0
aF0
aaaaa(lp9605
VrotateY
p9606
a(lp9607
(lp9608
F0
aF0
a(lp9609
Vauto
p9610
aVauto
p9611
aF0
aF0
aF0
aF0
aaaaa(lp9612
VrotateZ
p9613
a(lp9614
(lp9615
F0
aF0
a(lp9616
Vauto
p9617
aVauto
p9618
aF0
aF0
aF0
aF0
aaaaa(lp9619
VscaleX
p9620
a(lp9621
(lp9622
F0
aF1
a(lp9623
Vauto
p9624
aVauto
p9625
aF0
aF0
aF0
aF0
aaaaa(lp9626
VscaleY
p9627
a(lp9628
(lp9629
F0
aF1
a(lp9630
Vauto
p9631
aVauto
p9632
aF0
aF0
aF0
aF0
aaaaa(lp9633
VscaleZ
p9634
a(lp9635
(lp9636
F0
aF1
a(lp9637
Vauto
p9638
aVauto
p9639
aF0
aF0
aF0
aF0
aaaaa(lp9640
Vspace_world
p9641
a(lp9642
(lp9643
F0
aF0
a(lp9644
Vauto
p9645
aVauto
p9646
aF0
aF0
aF0
aF0
aaaaaaaaa(lp9647
Vring_ik_ctrl_l_grp_space_switcher
p9648
a(lp9649
(lp9650
Na(lp9651
(lp9652
Vvisibility
p9653
a(lp9654
(lp9655
F0
aF1
a(lp9656
Vspline
p9657
aVstep
p9658
aF0
aF0
aF0
aF0
aaaaa(lp9659
VtranslateX
p9660
a(lp9661
(lp9662
F0
aF0
a(lp9663
Vauto
p9664
aVauto
p9665
aF0
aF0
aF0
aF0
aaaaa(lp9666
VtranslateY
p9667
a(lp9668
(lp9669
F0
aF0
a(lp9670
Vauto
p9671
aVauto
p9672
aF0
aF0
aF0
aF0
aaaaa(lp9673
VtranslateZ
p9674
a(lp9675
(lp9676
F0
aF0
a(lp9677
Vauto
p9678
aVauto
p9679
aF0
aF0
aF0
aF0
aaaaa(lp9680
VrotateX
p9681
a(lp9682
(lp9683
F0
aF0
a(lp9684
Vauto
p9685
aVauto
p9686
aF0
aF0
aF0
aF0
aaaaa(lp9687
VrotateY
p9688
a(lp9689
(lp9690
F0
aF9.9392333795734899e-17
a(lp9691
Vauto
p9692
aVauto
p9693
aF0
aF0
aF0
aF0
aaaaa(lp9694
VrotateZ
p9695
a(lp9696
(lp9697
F0
aF-1.5902773407317584e-15
a(lp9698
Vauto
p9699
aVauto
p9700
aF0
aF0
aF0
aF0
aaaaa(lp9701
VscaleX
p9702
a(lp9703
(lp9704
F0
aF1
a(lp9705
Vauto
p9706
aVauto
p9707
aF0
aF0
aF0
aF0
aaaaa(lp9708
VscaleY
p9709
a(lp9710
(lp9711
F0
aF1
a(lp9712
Vauto
p9713
aVauto
p9714
aF0
aF0
aF0
aF0
aaaaa(lp9715
VscaleZ
p9716
a(lp9717
(lp9718
F0
aF1
a(lp9719
Vauto
p9720
aVauto
p9721
aF0
aF0
aF0
aF0
aaaaa(lp9722
Vspace_world
p9723
a(lp9724
(lp9725
F0
aF0
a(lp9726
Vauto
p9727
aVauto
p9728
aF0
aF0
aF0
aF0
aaaaaaaaa(lp9729
Vring_ik_ctrl_r_grp_space_switcher
p9730
a(lp9731
(lp9732
Na(lp9733
(lp9734
Vvisibility
p9735
a(lp9736
(lp9737
F0
aF1
a(lp9738
Vspline
p9739
aVstep
p9740
aF0
aF0
aF0
aF0
aaaaa(lp9741
VtranslateX
p9742
a(lp9743
(lp9744
F0
aF0
a(lp9745
Vauto
p9746
aVauto
p9747
aF0
aF0
aF0
aF0
aaaaa(lp9748
VtranslateY
p9749
a(lp9750
(lp9751
F0
aF0
a(lp9752
Vauto
p9753
aVauto
p9754
aF0
aF0
aF0
aF0
aaaaa(lp9755
VtranslateZ
p9756
a(lp9757
(lp9758
F0
aF-1.7763568394002505e-15
a(lp9759
Vauto
p9760
aVauto
p9761
aF0
aF0
aF0
aF0
aaaaa(lp9762
VrotateX
p9763
a(lp9764
(lp9765
F0
aF4.9696166897867437e-17
a(lp9766
Vauto
p9767
aVauto
p9768
aF0
aF0
aF0
aF0
aaaaa(lp9769
VrotateY
p9770
a(lp9771
(lp9772
F0
aF-1.0560435465796834e-16
a(lp9773
Vauto
p9774
aVauto
p9775
aF0
aF0
aF0
aF0
aaaaa(lp9776
VrotateZ
p9777
a(lp9778
(lp9779
F0
aF-1.5902773407317584e-15
a(lp9780
Vauto
p9781
aVauto
p9782
aF0
aF0
aF0
aF0
aaaaa(lp9783
VscaleX
p9784
a(lp9785
(lp9786
F0
aF1
a(lp9787
Vauto
p9788
aVauto
p9789
aF0
aF0
aF0
aF0
aaaaa(lp9790
VscaleY
p9791
a(lp9792
(lp9793
F0
aF1.0000000000000002
a(lp9794
Vauto
p9795
aVauto
p9796
aF0
aF0
aF0
aF0
aaaaa(lp9797
VscaleZ
p9798
a(lp9799
(lp9800
F0
aF1
a(lp9801
Vauto
p9802
aVauto
p9803
aF0
aF0
aF0
aF0
aaaaa(lp9804
Vspace_world
p9805
a(lp9806
(lp9807
F0
aF0
a(lp9808
Vauto
p9809
aVauto
p9810
aF0
aF0
aF0
aF0
aaaaaaaaa(lp9811
Vspine_01_space_switcher
p9812
a(lp9813
(lp9814
Na(lp9815
(lp9816
Vvisibility
p9817
a(lp9818
(lp9819
F0
aF1
a(lp9820
Vspline
p9821
aVstep
p9822
aF0
aF0
aF0
aF0
aaaaa(lp9823
VtranslateX
p9824
a(lp9825
(lp9826
F0
aF0
a(lp9827
Vauto
p9828
aVauto
p9829
aF0
aF0
aF0
aF0
aaaaa(lp9830
VtranslateY
p9831
a(lp9832
(lp9833
F0
aF0
a(lp9834
Vauto
p9835
aVauto
p9836
aF0
aF0
aF0
aF0
aaaaa(lp9837
VtranslateZ
p9838
a(lp9839
(lp9840
F0
aF1.2621774483536189e-29
a(lp9841
Vauto
p9842
aVauto
p9843
aF0
aF0
aF0
aF0
aaaaa(lp9844
VrotateX
p9845
a(lp9846
(lp9847
F0
aF0
a(lp9848
Vauto
p9849
aVauto
p9850
aF0
aF0
aF0
aF0
aaaaa(lp9851
VrotateY
p9852
a(lp9853
(lp9854
F0
aF-5.649800061504203e-30
a(lp9855
Vauto
p9856
aVauto
p9857
aF0
aF0
aF0
aF0
aaaaa(lp9858
VrotateZ
p9859
a(lp9860
(lp9861
F0
aF0
a(lp9862
Vauto
p9863
aVauto
p9864
aF0
aF0
aF0
aF0
aaaaa(lp9865
VscaleX
p9866
a(lp9867
(lp9868
F0
aF1
a(lp9869
Vauto
p9870
aVauto
p9871
aF0
aF0
aF0
aF0
aaaaa(lp9872
VscaleY
p9873
a(lp9874
(lp9875
F0
aF1
a(lp9876
Vauto
p9877
aVauto
p9878
aF0
aF0
aF0
aF0
aaaaa(lp9879
VscaleZ
p9880
a(lp9881
(lp9882
F0
aF1
a(lp9883
Vauto
p9884
aVauto
p9885
aF0
aF0
aF0
aF0
aaaaa(lp9886
Vspace_world
p9887
a(lp9888
(lp9889
F0
aF0
a(lp9890
Vauto
p9891
aVauto
p9892
aF0
aF0
aF0
aF0
aaaaaaaaa(lp9893
S'chest_ik_world_aligned'
p9894
a(lp9895
(lp9896
Na(lp9897
aaaa(lp9898
S'fk_orient_world_loc_l'
p9899
a(lp9900
(lp9901
Na(lp9902
(lp9903
Vvisibility
p9904
a(lp9905
(lp9906
F0
aF1
a(lp9907
Vspline
p9908
aVstep
p9909
aF0
aF0
aF0
aF0
aaaaa(lp9910
VtranslateX
p9911
a(lp9912
(lp9913
F0
aF15.70901527190424
a(lp9914
Vauto
p9915
aVauto
p9916
aF0
aF0
aF0
aF0
aaaaa(lp9917
VtranslateY
p9918
a(lp9919
(lp9920
F0
aF5.02771676107327
a(lp9921
Vauto
p9922
aVauto
p9923
aF0
aF0
aF0
aF0
aaaaa(lp9924
VtranslateZ
p9925
a(lp9926
(lp9927
F0
aF140.17686079342991
a(lp9928
Vauto
p9929
aVauto
p9930
aF0
aF0
aF0
aF0
aaaaa(lp9931
VrotateX
p9932
a(lp9933
(lp9934
F0
aF0.52160574912245161
a(lp9935
Vauto
p9936
aVauto
p9937
aF0
aF0
aF0
aF0
aaaaa(lp9938
VrotateY
p9939
a(lp9940
(lp9941
F0
aF-0
a(lp9942
Vauto
p9943
aVauto
p9944
aF0
aF0
aF0
aF0
aaaaa(lp9945
VrotateZ
p9946
a(lp9947
(lp9948
F0
aF0
a(lp9949
Vauto
p9950
aVauto
p9951
aF0
aF0
aF0
aF0
aaaaa(lp9952
VscaleX
p9953
a(lp9954
(lp9955
F0
aF1
a(lp9956
Vauto
p9957
aVauto
p9958
aF0
aF0
aF0
aF0
aaaaa(lp9959
VscaleY
p9960
a(lp9961
(lp9962
F0
aF1
a(lp9963
Vauto
p9964
aVauto
p9965
aF0
aF0
aF0
aF0
aaaaa(lp9966
VscaleZ
p9967
a(lp9968
(lp9969
F0
aF1
a(lp9970
Vauto
p9971
aVauto
p9972
aF0
aF0
aF0
aF0
aaaaaaaaa(lp9973
S'fk_orient_world_loc_r'
p9974
a(lp9975
(lp9976
Na(lp9977
(lp9978
Vvisibility
p9979
a(lp9980
(lp9981
F0
aF1
a(lp9982
Vspline
p9983
aVstep
p9984
aF0
aF0
aF0
aF0
aaaaa(lp9985
VtranslateX
p9986
a(lp9987
(lp9988
F0
aF-15.709000000000035
a(lp9989
Vauto
p9990
aVauto
p9991
aF0
aF0
aF0
aF0
aaaaa(lp9992
VtranslateY
p9993
a(lp9994
(lp9995
F0
aF5.0277003917744194
a(lp9996
Vauto
p9997
aVauto
p9998
aF0
aF0
aF0
aF0
aaaaa(lp9999
VtranslateZ
p10000
a(lp10001
(lp10002
F0
aF140.17697512254779
a(lp10003
Vauto
p10004
aVauto
p10005
aF0
aF0
aF0
aF0
aaaaa(lp10006
VrotateX
p10007
a(lp10008
(lp10009
F0
aF-179.47839425087759
a(lp10010
Vauto
p10011
aVauto
p10012
aF0
aF0
aF0
aF0
aaaaa(lp10013
VrotateY
p10014
a(lp10015
(lp10016
F0
aF0
a(lp10017
Vauto
p10018
aVauto
p10019
aF0
aF0
aF0
aF0
aaaaa(lp10020
VrotateZ
p10021
a(lp10022
(lp10023
F0
aF0
a(lp10024
Vauto
p10025
aVauto
p10026
aF0
aF0
aF0
aF0
aaaaa(lp10027
VscaleX
p10028
a(lp10029
(lp10030
F0
aF1
a(lp10031
Vauto
p10032
aVauto
p10033
aF0
aF0
aF0
aF0
aaaaa(lp10034
VscaleY
p10035
a(lp10036
(lp10037
F0
aF1
a(lp10038
Vauto
p10039
aVauto
p10040
aF0
aF0
aF0
aF0
aaaaa(lp10041
VscaleZ
p10042
a(lp10043
(lp10044
F0
aF1
a(lp10045
Vauto
p10046
aVauto
p10047
aF0
aF0
aF0
aF0
aaaaaaaaa(lp10048
S'fk_orient_body_loc_l'
p10049
a(lp10050
(lp10051
Na(lp10052
(lp10053
Vvisibility
p10054
a(lp10055
(lp10056
F0
aF1
a(lp10057
Vspline
p10058
aVstep
p10059
aF0
aF0
aF0
aF0
aaaaa(lp10060
VtranslateX
p10061
a(lp10062
(lp10063
F0
aF44.444896743556285
a(lp10064
Vauto
p10065
aVauto
p10066
aF0
aF0
aF0
aF0
aaaaa(lp10067
VtranslateY
p10068
a(lp10069
(lp10070
F0
aF3.9781349213210024
a(lp10071
Vauto
p10072
aVauto
p10073
aF0
aF0
aF0
aF0
aaaaa(lp10074
VtranslateZ
p10075
a(lp10076
(lp10077
F0
aF-15.70901527190423
a(lp10078
Vauto
p10079
aVauto
p10080
aF0
aF0
aF0
aF0
aaaaa(lp10081
VrotateX
p10082
a(lp10083
(lp10084
F0
aF0.52160574912244251
a(lp10085
Vauto
p10086
aVauto
p10087
aF0
aF0
aF0
aF0
aaaaa(lp10088
VrotateY
p10089
a(lp10090
(lp10091
F0
aF90
a(lp10092
Vauto
p10093
aVauto
p10094
aF0
aF0
aF0
aF0
aaaaa(lp10095
VrotateZ
p10096
a(lp10097
(lp10098
F0
aF0
a(lp10099
Vauto
p10100
aVauto
p10101
aF0
aF0
aF0
aF0
aaaaa(lp10102
VscaleX
p10103
a(lp10104
(lp10105
F0
aF1
a(lp10106
Vauto
p10107
aVauto
p10108
aF0
aF0
aF0
aF0
aaaaa(lp10109
VscaleY
p10110
a(lp10111
(lp10112
F0
aF1
a(lp10113
Vauto
p10114
aVauto
p10115
aF0
aF0
aF0
aF0
aaaaa(lp10116
VscaleZ
p10117
a(lp10118
(lp10119
F0
aF1
a(lp10120
Vauto
p10121
aVauto
p10122
aF0
aF0
aF0
aF0
aaaaaaaaa(lp10123
S'fk_orient_body_loc_r'
p10124
a(lp10125
(lp10126
Na(lp10127
(lp10128
Vvisibility
p10129
a(lp10130
(lp10131
F0
aF1
a(lp10132
Vspline
p10133
aVstep
p10134
aF0
aF0
aF0
aF0
aaaaa(lp10135
VtranslateX
p10136
a(lp10137
(lp10138
F0
aF44.445011072674163
a(lp10139
Vauto
p10140
aVauto
p10141
aF0
aF0
aF0
aF0
aaaaa(lp10142
VtranslateY
p10143
a(lp10144
(lp10145
F0
aF3.9781185520221518
a(lp10146
Vauto
p10147
aVauto
p10148
aF0
aF0
aF0
aF0
aaaaa(lp10149
VtranslateZ
p10150
a(lp10151
(lp10152
F0
aF15.709000000000046
a(lp10153
Vauto
p10154
aVauto
p10155
aF0
aF0
aF0
aF0
aaaaa(lp10156
VrotateX
p10157
a(lp10158
(lp10159
F0
aF-179.47839425087759
a(lp10160
Vauto
p10161
aVauto
p10162
aF0
aF0
aF0
aF0
aaaaa(lp10163
VrotateY
p10164
a(lp10165
(lp10166
F0
aF90
a(lp10167
Vauto
p10168
aVauto
p10169
aF0
aF0
aF0
aF0
aaaaa(lp10170
VrotateZ
p10171
a(lp10172
(lp10173
F0
aF0
a(lp10174
Vauto
p10175
aVauto
p10176
aF0
aF0
aF0
aF0
aaaaa(lp10177
VscaleX
p10178
a(lp10179
(lp10180
F0
aF1
a(lp10181
Vauto
p10182
aVauto
p10183
aF0
aF0
aF0
aF0
aaaaa(lp10184
VscaleY
p10185
a(lp10186
(lp10187
F0
aF1
a(lp10188
Vauto
p10189
aVauto
p10190
aF0
aF0
aF0
aF0
aaaaa(lp10191
VscaleZ
p10192
a(lp10193
(lp10194
F0
aF1
a(lp10195
Vauto
p10196
aVauto
p10197
aF0
aF0
aF0
aF0
aaaaaaaaa(lp10198
S'head_fk_orient_neck'
p10199
a(lp10200
(lp10201
Na(lp10202
(lp10203
Vvisibility
p10204
a(lp10205
(lp10206
F0
aF1
a(lp10207
Vspline
p10208
aVstep
p10209
aF0
aF0
aF0
aF0
aaaaa(lp10210
VtranslateX
p10211
a(lp10212
(lp10213
F0
aF3.7858245654211089
a(lp10214
Vauto
p10215
aVauto
p10216
aF0
aF0
aF0
aF0
aaaaa(lp10217
VtranslateY
p10218
a(lp10219
(lp10220
F0
aF-0.090718376561504499
a(lp10221
Vauto
p10222
aVauto
p10223
aF0
aF0
aF0
aF0
aaaaa(lp10224
VtranslateZ
p10225
a(lp10226
(lp10227
F0
aF2.8341083585330194e-15
a(lp10228
Vauto
p10229
aVauto
p10230
aF0
aF0
aF0
aF0
aaaaa(lp10231
VrotateX
p10232
a(lp10233
(lp10234
F0
aF-5.253245120426134e-15
a(lp10235
Vauto
p10236
aVauto
p10237
aF0
aF0
aF0
aF0
aaaaa(lp10238
VrotateY
p10239
a(lp10240
(lp10241
F0
aF9.8487145190020946e-17
a(lp10242
Vauto
p10243
aVauto
p10244
aF0
aF0
aF0
aF0
aaaaa(lp10245
VrotateZ
p10246
a(lp10247
(lp10248
F0
aF13.202170317130344
a(lp10249
Vauto
p10250
aVauto
p10251
aF0
aF0
aF0
aF0
aaaaa(lp10252
VscaleX
p10253
a(lp10254
(lp10255
F0
aF1
a(lp10256
Vauto
p10257
aVauto
p10258
aF0
aF0
aF0
aF0
aaaaa(lp10259
VscaleY
p10260
a(lp10261
(lp10262
F0
aF1
a(lp10263
Vauto
p10264
aVauto
p10265
aF0
aF0
aF0
aF0
aaaaa(lp10266
VscaleZ
p10267
a(lp10268
(lp10269
F0
aF1
a(lp10270
Vauto
p10271
aVauto
p10272
aF0
aF0
aF0
aF0
aaaaaaaaa(lp10273
S'head_fk_orient_shoulder'
p10274
a(lp10275
(lp10276
Na(lp10277
(lp10278
Vvisibility
p10279
a(lp10280
(lp10281
F0
aF1
a(lp10282
Vspline
p10283
aVstep
p10284
aF0
aF0
aF0
aF0
aaaaa(lp10285
VtranslateX
p10286
a(lp10287
(lp10288
F0
aF30.514486613135659
a(lp10289
Vauto
p10290
aVauto
p10291
aF0
aF0
aF0
aF0
aaaaa(lp10292
VtranslateY
p10293
a(lp10294
(lp10295
F0
aF-4.3647424283527663
a(lp10296
Vauto
p10297
aVauto
p10298
aF0
aF0
aF0
aF0
aaaaa(lp10299
VtranslateZ
p10300
a(lp10301
(lp10302
F0
aF3.262709609385664e-14
a(lp10303
Vauto
p10304
aVauto
p10305
aF0
aF0
aF0
aF0
aaaaa(lp10306
VrotateX
p10307
a(lp10308
(lp10309
F0
aF-1.6189655092994698e-16
a(lp10310
Vauto
p10311
aVauto
p10312
aF0
aF0
aF0
aF0
aaaaa(lp10313
VrotateY
p10314
a(lp10315
(lp10316
F0
aF1.2725500998468247e-14
a(lp10317
Vauto
p10318
aVauto
p10319
aF0
aF0
aF0
aF0
aaaaa(lp10320
VrotateZ
p10321
a(lp10322
(lp10323
F0
aF-8.1594412142500286
a(lp10324
Vauto
p10325
aVauto
p10326
aF0
aF0
aF0
aF0
aaaaa(lp10327
VscaleX
p10328
a(lp10329
(lp10330
F0
aF1
a(lp10331
Vauto
p10332
aVauto
p10333
aF0
aF0
aF0
aF0
aaaaa(lp10334
VscaleY
p10335
a(lp10336
(lp10337
F0
aF0.99999999999999989
a(lp10338
Vauto
p10339
aVauto
p10340
aF0
aF0
aF0
aF0
aaaaa(lp10341
VscaleZ
p10342
a(lp10343
(lp10344
F0
aF1
a(lp10345
Vauto
p10346
aVauto
p10347
aF0
aF0
aF0
aF0
aaaaaaaaa(lp10348
S'head_fk_orient_body'
p10349
a(lp10350
(lp10351
Na(lp10352
(lp10353
Vvisibility
p10354
a(lp10355
(lp10356
F0
aF1
a(lp10357
Vspline
p10358
aVstep
p10359
aF0
aF0
aF0
aF0
aaaaa(lp10360
VtranslateX
p10361
a(lp10362
(lp10363
F0
aF65.426761266762981
a(lp10364
Vauto
p10365
aVauto
p10366
aF0
aF0
aF0
aF0
aaaaa(lp10367
VtranslateY
p10368
a(lp10369
(lp10370
F0
aF-0.28183320459197403
a(lp10371
Vauto
p10372
aVauto
p10373
aF0
aF0
aF0
aF0
aaaaa(lp10374
VtranslateZ
p10375
a(lp10376
(lp10377
F0
aF1.5907601229373439e-14
a(lp10378
Vauto
p10379
aVauto
p10380
aF0
aF0
aF0
aF0
aaaaa(lp10381
VrotateX
p10382
a(lp10383
(lp10384
F0
aF2.4848083448933725e-16
a(lp10385
Vauto
p10386
aVauto
p10387
aF0
aF0
aF0
aF0
aaaaa(lp10388
VrotateY
p10389
a(lp10390
(lp10391
F0
aF3.8166656177562201e-14
a(lp10392
Vauto
p10393
aVauto
p10394
aF0
aF0
aF0
aF0
aaaaa(lp10395
VrotateZ
p10396
a(lp10397
(lp10398
F0
aF0.79977622689058869
a(lp10399
Vauto
p10400
aVauto
p10401
aF0
aF0
aF0
aF0
aaaaa(lp10402
VscaleX
p10403
a(lp10404
(lp10405
F0
aF1
a(lp10406
Vauto
p10407
aVauto
p10408
aF0
aF0
aF0
aF0
aaaaa(lp10409
VscaleY
p10410
a(lp10411
(lp10412
F0
aF1
a(lp10413
Vauto
p10414
aVauto
p10415
aF0
aF0
aF0
aF0
aaaaa(lp10416
VscaleZ
p10417
a(lp10418
(lp10419
F0
aF1
a(lp10420
Vauto
p10421
aVauto
p10422
aF0
aF0
aF0
aF0
aaaaaaaaa(lp10423
S'head_fk_orient_world'
p10424
a(lp10425
(lp10426
Na(lp10427
(lp10428
Vvisibility
p10429
a(lp10430
(lp10431
F0
aF1
a(lp10432
Vspline
p10433
aVstep
p10434
aF0
aF0
aF0
aF0
aaaaa(lp10435
VtranslateX
p10436
a(lp10437
(lp10438
F0
aF-5.5093426110811197e-15
a(lp10439
Vauto
p10440
aVauto
p10441
aF0
aF0
aF0
aF0
aaaaa(lp10442
VtranslateY
p10443
a(lp10444
(lp10445
F0
aF0.76774863516029068
a(lp10446
Vauto
p10447
aVauto
p10448
aF0
aF0
aF0
aF0
aaaaa(lp10449
VtranslateZ
p10450
a(lp10451
(lp10452
F0
aF161.15872531663661
a(lp10453
Vauto
p10454
aVauto
p10455
aF0
aF0
aF0
aF0
aaaaa(lp10456
VrotateX
p10457
a(lp10458
(lp10459
F0
aF-89.999999999997726
a(lp10460
Vauto
p10461
aVauto
p10462
aF0
aF0
aF0
aF0
aaaaa(lp10463
VrotateY
p10464
a(lp10465
(lp10466
F0
aF-89.200223773109428
a(lp10467
Vauto
p10468
aVauto
p10469
aF0
aF0
aF0
aF0
aaaaa(lp10470
VrotateZ
p10471
a(lp10472
(lp10473
F0
aF89.999999999997726
a(lp10474
Vauto
p10475
aVauto
p10476
aF0
aF0
aF0
aF0
aaaaa(lp10477
VscaleX
p10478
a(lp10479
(lp10480
F0
aF1
a(lp10481
Vauto
p10482
aVauto
p10483
aF0
aF0
aF0
aF0
aaaaa(lp10484
VscaleY
p10485
a(lp10486
(lp10487
F0
aF1
a(lp10488
Vauto
p10489
aVauto
p10490
aF0
aF0
aF0
aF0
aaaaa(lp10491
VscaleZ
p10492
a(lp10493
(lp10494
F0
aF1
a(lp10495
Vauto
p10496
aVauto
p10497
aF0
aF0
aF0
aF0
aaaaaaaaa.