(lp1
(lp2
S'head_fk_anim'
p3
a(lp4
(lp5
Na(lp6
(lp7
VtranslateX
p8
a(lp9
(lp10
F0
aF0
a(lp11
Vauto
p12
aVauto
p13
aF0
aF0
aF0
aF0
aaaaa(lp14
VtranslateY
p15
a(lp16
(lp17
F0
aF0
a(lp18
Vauto
p19
aVauto
p20
aF0
aF0
aF0
aF0
aaaaa(lp21
VtranslateZ
p22
a(lp23
(lp24
F0
aF0
a(lp25
Vauto
p26
aVauto
p27
aF0
aF0
aF0
aF0
aaaaa(lp28
VrotateX
p29
a(lp30
(lp31
F0
aF0
a(lp32
Vauto
p33
aVauto
p34
aF0
aF0
aF0
aF0
aaaaa(lp35
VrotateY
p36
a(lp37
(lp38
F0
aF0
a(lp39
Vauto
p40
aVauto
p41
aF0
aF0
aF0
aF0
aaaaa(lp42
VrotateZ
p43
a(lp44
(lp45
F0
aF0
a(lp46
Vauto
p47
aVauto
p48
aF0
aF0
aF0
aF0
aaaaa(lp49
VscaleX
p50
a(lp51
(lp52
F0
aF1
a(lp53
Vauto
p54
aVauto
p55
aF0
aF0
aF0
aF0
aaaaa(lp56
VscaleY
p57
a(lp58
(lp59
F0
aF1
a(lp60
Vauto
p61
aVauto
p62
aF0
aF0
aF0
aF0
aaaaa(lp63
VscaleZ
p64
a(lp65
(lp66
F0
aF1
a(lp67
Vauto
p68
aVauto
p69
aF0
aF0
aF0
aF0
aaaaa(lp70
VfkOrientation
p71
a(lp72
(lp73
F0
aF0
a(lp74
Vspline
p75
aVstep
p76
aF0
aF0
aF1
aF0
aaaaaaaaa(lp77
S'neck_01_fk_anim'
p78
a(lp79
(lp80
Na(lp81
(lp82
VtranslateX
p83
a(lp84
(lp85
F0
aF0
a(lp86
Vauto
p87
aVauto
p88
aF0
aF0
aF0
aF0
aaaaa(lp89
VtranslateY
p90
a(lp91
(lp92
F0
aF0
a(lp93
Vauto
p94
aVauto
p95
aF0
aF0
aF0
aF0
aaaaa(lp96
VtranslateZ
p97
a(lp98
(lp99
F0
aF0
a(lp100
Vauto
p101
aVauto
p102
aF0
aF0
aF0
aF0
aaaaa(lp103
VrotateX
p104
a(lp105
(lp106
F0
aF0
a(lp107
Vauto
p108
aVauto
p109
aF0
aF0
aF0
aF0
aaaaa(lp110
VrotateY
p111
a(lp112
(lp113
F0
aF5.649800061504203e-30
a(lp114
Vauto
p115
aVauto
p116
aF0
aF0
aF0
aF0
aaaaa(lp117
VrotateZ
p118
a(lp119
(lp120
F0
aF0
a(lp121
Vauto
p122
aVauto
p123
aF0
aF0
aF0
aF0
aaaaa(lp124
VscaleX
p125
a(lp126
(lp127
F0
aF1
a(lp128
Vauto
p129
aVauto
p130
aF0
aF0
aF0
aF0
aaaaa(lp131
VscaleY
p132
a(lp133
(lp134
F0
aF1
a(lp135
Vauto
p136
aVauto
p137
aF0
aF0
aF0
aF0
aaaaa(lp138
VscaleZ
p139
a(lp140
(lp141
F0
aF1
a(lp142
Vauto
p143
aVauto
p144
aF0
aF0
aF0
aF0
aaaaa(lp145
VfkOrientation
p146
a(lp147
(lp148
F0
aF0
a(lp149
Vspline
p150
aVstep
p151
aF0
aF0
aF1
aF0
aaaaaaaaa(lp152
S'neck_02_fk_anim'
p153
a(lp154
(lp155
Na(lp156
(lp157
VtranslateX
p158
a(lp159
(lp160
F0
aF0
a(lp161
Vauto
p162
aVauto
p163
aF0
aF0
aF0
aF0
aaaaa(lp164
VtranslateY
p165
a(lp166
(lp167
F0
aF0
a(lp168
Vauto
p169
aVauto
p170
aF0
aF0
aF0
aF0
aaaaa(lp171
VtranslateZ
p172
a(lp173
(lp174
F0
aF0
a(lp175
Vauto
p176
aVauto
p177
aF0
aF0
aF0
aF0
aaaaa(lp178
VrotateX
p179
a(lp180
(lp181
F0
aF0
a(lp182
Vauto
p183
aVauto
p184
aF0
aF0
aF0
aF0
aaaaa(lp185
VrotateY
p186
a(lp187
(lp188
F0
aF0
a(lp189
Vauto
p190
aVauto
p191
aF0
aF0
aF0
aF0
aaaaa(lp192
VrotateZ
p193
a(lp194
(lp195
F0
aF0
a(lp196
Vauto
p197
aVauto
p198
aF0
aF0
aF0
aF0
aaaaa(lp199
VscaleX
p200
a(lp201
(lp202
F0
aF1
a(lp203
Vauto
p204
aVauto
p205
aF0
aF0
aF0
aF0
aaaaa(lp206
VscaleY
p207
a(lp208
(lp209
F0
aF1
a(lp210
Vauto
p211
aVauto
p212
aF0
aF0
aF0
aF0
aaaaa(lp213
VscaleZ
p214
a(lp215
(lp216
F0
aF1
a(lp217
Vauto
p218
aVauto
p219
aF0
aF0
aF0
aF0
aaaaaaaaa(lp220
g154
aa(lp221
S'spine_01_anim'
p222
a(lp223
(lp224
Na(lp225
(lp226
Vlength
p227
a(lp228
(lp229
F0
aF0
a(lp230
Vauto
p231
aVauto
p232
aF0
aF0
aF0
aF0
aaaaa(lp233
VtranslateY
p234
a(lp235
(lp236
F0
aF0
a(lp237
Vauto
p238
aVauto
p239
aF0
aF0
aF0
aF0
aaaaa(lp240
VtranslateZ
p241
a(lp242
(lp243
F0
aF0
a(lp244
Vauto
p245
aVauto
p246
aF0
aF0
aF0
aF0
aaaaa(lp247
VrotateX
p248
a(lp249
(lp250
F0
aF0
a(lp251
Vauto
p252
aVauto
p253
aF0
aF0
aF0
aF0
aaaaa(lp254
VrotateY
p255
a(lp256
(lp257
F0
aF0
a(lp258
Vauto
p259
aVauto
p260
aF0
aF0
aF0
aF0
aaaaa(lp261
VrotateZ
p262
a(lp263
(lp264
F0
aF0
a(lp265
Vauto
p266
aVauto
p267
aF0
aF0
aF0
aF0
aaaaaaaaa(lp268
S'spine_02_anim'
p269
a(lp270
(lp271
Na(lp272
(lp273
Vlength
p274
a(lp275
(lp276
F0
aF0
a(lp277
Vauto
p278
aVauto
p279
aF0
aF0
aF0
aF0
aaaaa(lp280
VtranslateY
p281
a(lp282
(lp283
F0
aF0
a(lp284
Vauto
p285
aVauto
p286
aF0
aF0
aF0
aF0
aaaaa(lp287
VtranslateZ
p288
a(lp289
(lp290
F0
aF0
a(lp291
Vauto
p292
aVauto
p293
aF0
aF0
aF0
aF0
aaaaa(lp294
VrotateX
p295
a(lp296
(lp297
F0
aF0
a(lp298
Vauto
p299
aVauto
p300
aF0
aF0
aF0
aF0
aaaaa(lp301
VrotateY
p302
a(lp303
(lp304
F0
aF0
a(lp305
Vauto
p306
aVauto
p307
aF0
aF0
aF0
aF0
aaaaa(lp308
VrotateZ
p309
a(lp310
(lp311
F0
aF0
a(lp312
Vauto
p313
aVauto
p314
aF0
aF0
aF0
aF0
aaaaaaaaa(lp315
S'spine_03_anim'
p316
a(lp317
(lp318
Na(lp319
(lp320
Vlength
p321
a(lp322
(lp323
F0
aF0
a(lp324
Vauto
p325
aVauto
p326
aF0
aF0
aF0
aF0
aaaaa(lp327
VtranslateY
p328
a(lp329
(lp330
F0
aF0
a(lp331
Vauto
p332
aVauto
p333
aF0
aF0
aF0
aF0
aaaaa(lp334
VtranslateZ
p335
a(lp336
(lp337
F0
aF0
a(lp338
Vauto
p339
aVauto
p340
aF0
aF0
aF0
aF0
aaaaa(lp341
VrotateX
p342
a(lp343
(lp344
F0
aF0
a(lp345
Vauto
p346
aVauto
p347
aF0
aF0
aF0
aF0
aaaaa(lp348
VrotateY
p349
a(lp350
(lp351
F0
aF0
a(lp352
Vauto
p353
aVauto
p354
aF0
aF0
aF0
aF0
aaaaa(lp355
VrotateZ
p356
a(lp357
(lp358
F0
aF0
a(lp359
Vauto
p360
aVauto
p361
aF0
aF0
aF0
aF0
aaaaaaaaa(lp362
g317
aa(lp363
g317
aa(lp364
S'mid_ik_anim'
p365
a(lp366
(lp367
Na(lp368
(lp369
VtranslateX
p370
a(lp371
(lp372
F0
aF0
a(lp373
Vauto
p374
aVauto
p375
aF0
aF0
aF0
aF0
aaaaa(lp376
VtranslateY
p377
a(lp378
(lp379
F0
aF0
a(lp380
Vauto
p381
aVauto
p382
aF0
aF0
aF0
aF0
aaaaa(lp383
VtranslateZ
p384
a(lp385
(lp386
F0
aF0
a(lp387
Vauto
p388
aVauto
p389
aF0
aF0
aF0
aF0
aaaaa(lp390
VrotateX
p391
a(lp392
(lp393
F0
aF0
a(lp394
Vauto
p395
aVauto
p396
aF0
aF0
aF0
aF0
aaaaa(lp397
VrotateY
p398
a(lp399
(lp400
F0
aF0
a(lp401
Vauto
p402
aVauto
p403
aF0
aF0
aF0
aF0
aaaaa(lp404
VrotateZ
p405
a(lp406
(lp407
F0
aF0
a(lp408
Vauto
p409
aVauto
p410
aF0
aF0
aF0
aF0
aaaaaaaaa(lp411
S'chest_ik_anim'
p412
a(lp413
(lp414
Na(lp415
(lp416
VtranslateX
p417
a(lp418
(lp419
F0
aF0
a(lp420
Vauto
p421
aVauto
p422
aF0
aF0
aF0
aF0
aaaaa(lp423
VtranslateY
p424
a(lp425
(lp426
F0
aF0
a(lp427
Vauto
p428
aVauto
p429
aF0
aF0
aF0
aF0
aaaaa(lp430
VtranslateZ
p431
a(lp432
(lp433
F0
aF0
a(lp434
Vauto
p435
aVauto
p436
aF0
aF0
aF0
aF0
aaaaa(lp437
VrotateX
p438
a(lp439
(lp440
F0
aF0
a(lp441
Vauto
p442
aVauto
p443
aF0
aF0
aF0
aF0
aaaaa(lp444
VrotateY
p445
a(lp446
(lp447
F0
aF0
a(lp448
Vauto
p449
aVauto
p450
aF0
aF0
aF0
aF0
aaaaa(lp451
VrotateZ
p452
a(lp453
(lp454
F0
aF0
a(lp455
Vauto
p456
aVauto
p457
aF0
aF0
aF0
aF0
aaaaa(lp458
Vstretch
p459
a(lp460
(lp461
F0
aF0
a(lp462
Vauto
p463
aVauto
p464
aF0
aF0
aF0
aF0
aaaaa(lp465
Vsquash
p466
a(lp467
(lp468
F0
aF0
a(lp469
Vauto
p470
aVauto
p471
aF0
aF0
aF0
aF0
aaaaa(lp472
Vtwist_amount
p473
a(lp474
(lp475
F0
aF1
a(lp476
Vauto
p477
aVauto
p478
aF0
aF0
aF0
aF0
aaaaa(lp479
VautoSpine
p480
a(lp481
(lp482
F0
aF0
a(lp483
Vauto
p484
aVauto
p485
aF0
aF0
aF0
aF0
aaaaa(lp486
VrotationInfluence
p487
a(lp488
(lp489
F0
aF0.25
a(lp490
Vauto
p491
aVauto
p492
aF0
aF0
aF0
aF0
aaaaaaaaa(lp493
S'body_anim'
p494
a(lp495
(lp496
Na(lp497
(lp498
VtranslateX
p499
a(lp500
(lp501
F0
aF0
a(lp502
Vauto
p503
aVauto
p504
aF0
aF0
aF0
aF0
aaaaa(lp505
VtranslateY
p506
a(lp507
(lp508
F0
aF0
a(lp509
Vauto
p510
aVauto
p511
aF0
aF0
aF0
aF0
aaaaa(lp512
VtranslateZ
p513
a(lp514
(lp515
F0
aF0
a(lp516
Vauto
p517
aVauto
p518
aF0
aF0
aF0
aF0
aaaaa(lp519
VrotateX
p520
a(lp521
(lp522
F0
aF0
a(lp523
Vauto
p524
aVauto
p525
aF0
aF0
aF0
aF0
aaaaa(lp526
VrotateY
p527
a(lp528
(lp529
F0
aF0
a(lp530
Vauto
p531
aVauto
p532
aF0
aF0
aF0
aF0
aaaaa(lp533
VrotateZ
p534
a(lp535
(lp536
F0
aF0
a(lp537
Vauto
p538
aVauto
p539
aF0
aF0
aF0
aF0
aaaaaaaaa(lp540
S'hip_anim'
p541
a(lp542
(lp543
Na(lp544
(lp545
VtranslateX
p546
a(lp547
(lp548
F0
aF0
a(lp549
Vauto
p550
aVauto
p551
aF0
aF0
aF0
aF0
aaaaa(lp552
VtranslateY
p553
a(lp554
(lp555
F0
aF0
a(lp556
Vauto
p557
aVauto
p558
aF0
aF0
aF0
aF0
aaaaa(lp559
VtranslateZ
p560
a(lp561
(lp562
F0
aF-6.3108872417680944e-30
a(lp563
Vauto
p564
aVauto
p565
aF0
aF0
aF0
aF0
aaaaa(lp566
VrotateX
p567
a(lp568
(lp569
F0
aF3.7272125173400562e-17
a(lp570
Vauto
p571
aVauto
p572
aF0
aF0
aF0
aF0
aaaaa(lp573
VrotateY
p574
a(lp575
(lp576
F0
aF-2.5444437451708134e-14
a(lp577
Vauto
p578
aVauto
p579
aF0
aF0
aF0
aF0
aaaaa(lp580
VrotateZ
p581
a(lp582
(lp583
F0
aF4.9696166897867437e-17
a(lp584
Vauto
p585
aVauto
p586
aF0
aF0
aF0
aF0
aaaaa(lp587
VlTwistCtrlVis
p588
a(lp589
(lp590
F0
aF0
a(lp591
Vspline
p592
aVstep
p593
aF0
aF0
aF1
aF0
aaaaa(lp594
VlCalfTwistCtrlVis
p595
a(lp596
(lp597
F0
aF0
a(lp598
Vspline
p599
aVstep
p600
aF0
aF0
aF1
aF0
aaaaa(lp601
VrTwistCtrlVis
p602
a(lp603
(lp604
F0
aF0
a(lp605
Vspline
p606
aVstep
p607
aF0
aF0
aF1
aF0
aaaaa(lp608
VrCalfTwistCtrlVis
p609
a(lp610
(lp611
F0
aF0
a(lp612
Vspline
p613
aVstep
p614
aF0
aF0
aF1
aF0
aaaaa(lp615
VautoHips
p616
a(lp617
(lp618
F0
aF0
a(lp619
Vauto
p620
aVauto
p621
aF0
aF0
aF0
aF0
aaaaaaaaa(lp622
S'clavicle_l_anim'
p623
a(lp624
(lp625
Na(lp626
(lp627
VtranslateX
p628
a(lp629
(lp630
F0
aF0
a(lp631
Vauto
p632
aVauto
p633
aF0
aF0
aF0
aF0
aaaaa(lp634
VtranslateY
p635
a(lp636
(lp637
F0
aF0
a(lp638
Vauto
p639
aVauto
p640
aF0
aF0
aF0
aF0
aaaaa(lp641
VtranslateZ
p642
a(lp643
(lp644
F0
aF0
a(lp645
Vauto
p646
aVauto
p647
aF0
aF0
aF0
aF0
aaaaa(lp648
VautoShoulders
p649
a(lp650
(lp651
F0
aF0
a(lp652
Vauto
p653
aVauto
p654
aF0
aF0
aF0
aF0
aaaaaaaaa(lp655
S'clavicle_r_anim'
p656
a(lp657
(lp658
Na(lp659
(lp660
VtranslateX
p661
a(lp662
(lp663
F0
aF0
a(lp664
Vauto
p665
aVauto
p666
aF0
aF0
aF0
aF0
aaaaa(lp667
VtranslateY
p668
a(lp669
(lp670
F0
aF0
a(lp671
Vauto
p672
aVauto
p673
aF0
aF0
aF0
aF0
aaaaa(lp674
VtranslateZ
p675
a(lp676
(lp677
F0
aF0
a(lp678
Vauto
p679
aVauto
p680
aF0
aF0
aF0
aF0
aaaaa(lp681
VautoShoulders
p682
a(lp683
(lp684
F0
aF0
a(lp685
Vauto
p686
aVauto
p687
aF0
aF0
aF0
aF0
aaaaaaaaa(lp688
S'fk_arm_l_anim'
p689
a(lp690
(lp691
Na(lp692
(lp693
VtranslateX
p694
a(lp695
(lp696
F0
aF0
a(lp697
Vauto
p698
aVauto
p699
aF0
aF0
aF0
aF0
aaaaa(lp700
VtranslateY
p701
a(lp702
(lp703
F0
aF0
a(lp704
Vauto
p705
aVauto
p706
aF0
aF0
aF0
aF0
aaaaa(lp707
VtranslateZ
p708
a(lp709
(lp710
F0
aF0
a(lp711
Vauto
p712
aVauto
p713
aF0
aF0
aF0
aF0
aaaaa(lp714
VrotateX
p715
a(lp716
(lp717
F0
aF0
a(lp718
Vauto
p719
aVauto
p720
aF0
aF0
aF0
aF0
aaaaa(lp721
VrotateY
p722
a(lp723
(lp724
F0
aF0
a(lp725
Vauto
p726
aVauto
p727
aF0
aF0
aF0
aF0
aaaaa(lp728
VrotateZ
p729
a(lp730
(lp731
F0
aF0
a(lp732
Vauto
p733
aVauto
p734
aF0
aF0
aF0
aF0
aaaaaaaaa(lp735
S'fk_arm_r_anim'
p736
a(lp737
(lp738
Na(lp739
(lp740
VtranslateX
p741
a(lp742
(lp743
F0
aF0
a(lp744
Vauto
p745
aVauto
p746
aF0
aF0
aF0
aF0
aaaaa(lp747
VtranslateY
p748
a(lp749
(lp750
F0
aF0
a(lp751
Vauto
p752
aVauto
p753
aF0
aF0
aF0
aF0
aaaaa(lp754
VtranslateZ
p755
a(lp756
(lp757
F0
aF0
a(lp758
Vauto
p759
aVauto
p760
aF0
aF0
aF0
aF0
aaaaa(lp761
VrotateX
p762
a(lp763
(lp764
F0
aF0
a(lp765
Vauto
p766
aVauto
p767
aF0
aF0
aF0
aF0
aaaaa(lp768
VrotateY
p769
a(lp770
(lp771
F0
aF0
a(lp772
Vauto
p773
aVauto
p774
aF0
aF0
aF0
aF0
aaaaa(lp775
VrotateZ
p776
a(lp777
(lp778
F0
aF0
a(lp779
Vauto
p780
aVauto
p781
aF0
aF0
aF0
aF0
aaaaaaaaa(lp782
S'fk_elbow_l_anim'
p783
a(lp784
(lp785
Na(lp786
(lp787
VtranslateX
p788
a(lp789
(lp790
F0
aF0
a(lp791
Vauto
p792
aVauto
p793
aF0
aF0
aF0
aF0
aaaaa(lp794
VtranslateY
p795
a(lp796
(lp797
F0
aF0
a(lp798
Vauto
p799
aVauto
p800
aF0
aF0
aF0
aF0
aaaaa(lp801
VtranslateZ
p802
a(lp803
(lp804
F0
aF0
a(lp805
Vauto
p806
aVauto
p807
aF0
aF0
aF0
aF0
aaaaa(lp808
VrotateX
p809
a(lp810
(lp811
F0
aF0
a(lp812
Vauto
p813
aVauto
p814
aF0
aF0
aF0
aF0
aaaaa(lp815
VrotateY
p816
a(lp817
(lp818
F0
aF0
a(lp819
Vauto
p820
aVauto
p821
aF0
aF0
aF0
aF0
aaaaa(lp822
VrotateZ
p823
a(lp824
(lp825
F0
aF0
a(lp826
Vauto
p827
aVauto
p828
aF0
aF0
aF0
aF0
aaaaaaaaa(lp829
S'fk_elbow_r_anim'
p830
a(lp831
(lp832
Na(lp833
(lp834
VtranslateX
p835
a(lp836
(lp837
F0
aF0
a(lp838
Vauto
p839
aVauto
p840
aF0
aF0
aF0
aF0
aaaaa(lp841
VtranslateY
p842
a(lp843
(lp844
F0
aF0
a(lp845
Vauto
p846
aVauto
p847
aF0
aF0
aF0
aF0
aaaaa(lp848
VtranslateZ
p849
a(lp850
(lp851
F0
aF0
a(lp852
Vauto
p853
aVauto
p854
aF0
aF0
aF0
aF0
aaaaa(lp855
VrotateX
p856
a(lp857
(lp858
F0
aF0
a(lp859
Vauto
p860
aVauto
p861
aF0
aF0
aF0
aF0
aaaaa(lp862
VrotateY
p863
a(lp864
(lp865
F0
aF0
a(lp866
Vauto
p867
aVauto
p868
aF0
aF0
aF0
aF0
aaaaa(lp869
VrotateZ
p870
a(lp871
(lp872
F0
aF0
a(lp873
Vauto
p874
aVauto
p875
aF0
aF0
aF0
aF0
aaaaaaaaa(lp876
S'fk_wrist_l_anim'
p877
a(lp878
(lp879
Na(lp880
(lp881
VtranslateX
p882
a(lp883
(lp884
F0
aF0
a(lp885
Vauto
p886
aVauto
p887
aF0
aF0
aF0
aF0
aaaaa(lp888
VtranslateY
p889
a(lp890
(lp891
F0
aF0
a(lp892
Vauto
p893
aVauto
p894
aF0
aF0
aF0
aF0
aaaaa(lp895
VtranslateZ
p896
a(lp897
(lp898
F0
aF0
a(lp899
Vauto
p900
aVauto
p901
aF0
aF0
aF0
aF0
aaaaa(lp902
VrotateX
p903
a(lp904
(lp905
F0
aF0
a(lp906
Vauto
p907
aVauto
p908
aF0
aF0
aF0
aF0
aaaaa(lp909
VrotateY
p910
a(lp911
(lp912
F0
aF0
a(lp913
Vauto
p914
aVauto
p915
aF0
aF0
aF0
aF0
aaaaa(lp916
VrotateZ
p917
a(lp918
(lp919
F0
aF0
a(lp920
Vauto
p921
aVauto
p922
aF0
aF0
aF0
aF0
aaaaaaaaa(lp923
S'fk_wrist_r_anim'
p924
a(lp925
(lp926
Na(lp927
(lp928
VtranslateX
p929
a(lp930
(lp931
F0
aF0
a(lp932
Vauto
p933
aVauto
p934
aF0
aF0
aF0
aF0
aaaaa(lp935
VtranslateY
p936
a(lp937
(lp938
F0
aF0
a(lp939
Vauto
p940
aVauto
p941
aF0
aF0
aF0
aF0
aaaaa(lp942
VtranslateZ
p943
a(lp944
(lp945
F0
aF0
a(lp946
Vauto
p947
aVauto
p948
aF0
aF0
aF0
aF0
aaaaa(lp949
VrotateX
p950
a(lp951
(lp952
F0
aF0
a(lp953
Vauto
p954
aVauto
p955
aF0
aF0
aF0
aF0
aaaaa(lp956
VrotateY
p957
a(lp958
(lp959
F0
aF0
a(lp960
Vauto
p961
aVauto
p962
aF0
aF0
aF0
aF0
aaaaa(lp963
VrotateZ
p964
a(lp965
(lp966
F0
aF0
a(lp967
Vauto
p968
aVauto
p969
aF0
aF0
aF0
aF0
aaaaaaaaa(lp970
S'ik_elbow_l_anim'
p971
a(lp972
(lp973
Na(lp974
(lp975
VtranslateX
p976
a(lp977
(lp978
F0
aF-23.234471546164677
a(lp979
Vauto
p980
aVauto
p981
aF0
aF0
aF1
aF1
aaa(lp982
F15
aF-23.234471546164677
a(lp983
Vauto
p984
aVauto
p985
aF0
aF0
aF1
aF1
aaaaa(lp986
VtranslateY
p987
a(lp988
(lp989
F0
aF-3.5527136788005009e-15
a(lp990
Vauto
p991
aVauto
p992
aF0
aF0
aF1
aF1
aaa(lp993
F15
aF-3.5527136788005009e-15
a(lp994
Vauto
p995
aVauto
p996
aF0
aF0
aF1
aF1
aaaaa(lp997
VtranslateZ
p998
a(lp999
(lp1000
F0
aF0
a(lp1001
Vauto
p1002
aVauto
p1003
aF0
aF0
aF1
aF1
aaa(lp1004
F15
aF-8.3774197000171853
a(lp1005
Vauto
p1006
aVauto
p1007
aF0
aF0
aF1
aF1
aaaaaaaaa(lp1008
S'ik_elbow_r_anim'
p1009
a(lp1010
(lp1011
Na(lp1012
(lp1013
VtranslateX
p1014
a(lp1015
(lp1016
F0
aF23.234471546164677
a(lp1017
Vauto
p1018
aVauto
p1019
aF0
aF0
aF0
aF0
aaaaa(lp1020
VtranslateY
p1021
a(lp1022
(lp1023
F0
aF-3.5527136788005009e-15
a(lp1024
Vauto
p1025
aVauto
p1026
aF0
aF0
aF0
aF0
aaaaa(lp1027
VtranslateZ
p1028
a(lp1029
(lp1030
F0
aF0
a(lp1031
Vauto
p1032
aVauto
p1033
aF0
aF0
aF0
aF0
aaaaaaaaa(lp1034
S'ik_wrist_l_anim'
p1035
a(lp1036
(lp1037
Na(lp1038
(lp1039
VtranslateX
p1040
a(lp1041
(lp1042
F0
aF-44.827348975238465
a(lp1043
Vauto
p1044
aVauto
p1045
aF0
aF0
aF1
aF1
aaa(lp1046
F15
aF-44.827348975238465
a(lp1047
Vauto
p1048
aVauto
p1049
aF0
aF0
aF1
aF1
aaa(lp1050
F23
aF-44.827348975238465
a(lp1051
Vauto
p1052
aVauto
p1053
aF0
aF0
aF1
aF1
aaa(lp1054
F30
aF-44.827348975238465
a(lp1055
Vauto
p1056
aVauto
p1057
aF0
aF0
aF1
aF1
aaaaa(lp1058
VtranslateY
p1059
a(lp1060
(lp1061
F0
aF-32.164306574045241
a(lp1062
Vauto
p1063
aVauto
p1064
aF0
aF0
aF1
aF1
aaa(lp1065
F15
aF-32.164306574045241
a(lp1066
Vauto
p1067
aVauto
p1068
aF0
aF0
aF1
aF1
aaa(lp1069
F23
aF-53.100257371259886
a(lp1070
Vauto
p1071
aVauto
p1072
aF0
aF0
aF1
aF1
aaa(lp1073
F30
aF-53.100257371259886
a(lp1074
Vauto
p1075
aVauto
p1076
aF0
aF0
aF1
aF1
aaaaa(lp1077
VtranslateZ
p1078
a(lp1079
(lp1080
F0
aF-26.550457913571677
a(lp1081
Vauto
p1082
aVauto
p1083
aF0
aF0
aF1
aF1
aaa(lp1084
F15
aF11.547708492799956
a(lp1085
Vauto
p1086
aVauto
p1087
aF0
aF0
aF1
aF1
aaa(lp1088
F23
aF11.547708492799956
a(lp1089
Vauto
p1090
aVauto
p1091
aF0
aF0
aF1
aF1
aaa(lp1092
F30
aF-17.973029515051422
a(lp1093
Vauto
p1094
aVauto
p1095
aF0
aF0
aF1
aF1
aaaaa(lp1096
VrotateX
p1097
a(lp1098
(lp1099
F0
aF-79.802349922544124
a(lp1100
Vauto
p1101
aVauto
p1102
aF0
aF0
aF1
aF1
aaa(lp1103
F15
aF-76.967289746605104
a(lp1104
Vauto
p1105
aVauto
p1106
aF0
aF0
aF1
aF1
aaa(lp1107
F23
aF-76.967289746605104
a(lp1108
Vauto
p1109
aVauto
p1110
aF0
aF0
aF1
aF1
aaa(lp1111
F30
aF-72.835737707293916
a(lp1112
Vauto
p1113
aVauto
p1114
aF0
aF0
aF1
aF1
aaaaa(lp1115
VrotateY
p1116
a(lp1117
(lp1118
F0
aF5.7205419641698469
a(lp1119
Vauto
p1120
aVauto
p1121
aF0
aF0
aF1
aF1
aaa(lp1122
F15
aF-38.630894241524096
a(lp1123
Vauto
p1124
aVauto
p1125
aF0
aF0
aF1
aF1
aaa(lp1126
F23
aF-38.630894241524096
a(lp1127
Vauto
p1128
aVauto
p1129
aF0
aF0
aF1
aF1
aaa(lp1130
F30
aF53.349325588010537
a(lp1131
Vauto
p1132
aVauto
p1133
aF0
aF0
aF1
aF1
aaaaa(lp1134
VrotateZ
p1135
a(lp1136
(lp1137
F0
aF-88.972773150815655
a(lp1138
Vauto
p1139
aVauto
p1140
aF0
aF0
aF1
aF1
aaa(lp1141
F15
aF-98.222702282106511
a(lp1142
Vauto
p1143
aVauto
p1144
aF0
aF0
aF1
aF1
aaa(lp1145
F23
aF-98.222702282106511
a(lp1146
Vauto
p1147
aVauto
p1148
aF0
aF0
aF1
aF1
aaa(lp1149
F30
aF-76.082349875498835
a(lp1150
Vauto
p1151
aVauto
p1152
aF0
aF0
aF1
aF1
aaaaa(lp1153
Vstretch
p1154
a(lp1155
(lp1156
F0
aF0
a(lp1157
Vauto
p1158
aVauto
p1159
aF0
aF0
aF1
aF1
aaa(lp1160
F15
aF0
a(lp1161
Vauto
p1162
aVauto
p1163
aF0
aF0
aF1
aF1
aaa(lp1164
F23
aF0
a(lp1165
Vauto
p1166
aVauto
p1167
aF0
aF0
aF1
aF1
aaa(lp1168
F30
aF0
a(lp1169
Vauto
p1170
aVauto
p1171
aF0
aF0
aF1
aF1
aaaaa(lp1172
Vsquash
p1173
a(lp1174
(lp1175
F0
aF0
a(lp1176
Vauto
p1177
aVauto
p1178
aF0
aF0
aF1
aF1
aaa(lp1179
F15
aF0
a(lp1180
Vauto
p1181
aVauto
p1182
aF0
aF0
aF1
aF1
aaa(lp1183
F23
aF0
a(lp1184
Vauto
p1185
aVauto
p1186
aF0
aF0
aF1
aF1
aaa(lp1187
F30
aF0
a(lp1188
Vauto
p1189
aVauto
p1190
aF0
aF0
aF1
aF1
aaaaa(lp1191
Vside
p1192
a(lp1193
(lp1194
F0
aF0
a(lp1195
Vauto
p1196
aVauto
p1197
aF0
aF0
aF1
aF1
aaa(lp1198
F15
aF0
a(lp1199
Vauto
p1200
aVauto
p1201
aF0
aF0
aF1
aF1
aaa(lp1202
F23
aF0
a(lp1203
Vauto
p1204
aVauto
p1205
aF0
aF0
aF1
aF1
aaa(lp1206
F30
aF0
a(lp1207
Vauto
p1208
aVauto
p1209
aF0
aF0
aF1
aF1
aaaaa(lp1210
Vmid_bend
p1211
a(lp1212
(lp1213
F0
aF0
a(lp1214
Vauto
p1215
aVauto
p1216
aF0
aF0
aF1
aF1
aaa(lp1217
F15
aF0
a(lp1218
Vauto
p1219
aVauto
p1220
aF0
aF0
aF1
aF1
aaa(lp1221
F23
aF0
a(lp1222
Vauto
p1223
aVauto
p1224
aF0
aF0
aF1
aF1
aaa(lp1225
F30
aF0
a(lp1226
Vauto
p1227
aVauto
p1228
aF0
aF0
aF1
aF1
aaaaa(lp1229
Vmid_swivel
p1230
a(lp1231
(lp1232
F0
aF0
a(lp1233
Vauto
p1234
aVauto
p1235
aF0
aF0
aF1
aF1
aaa(lp1236
F15
aF0
a(lp1237
Vauto
p1238
aVauto
p1239
aF0
aF0
aF1
aF1
aaa(lp1240
F23
aF0
a(lp1241
Vauto
p1242
aVauto
p1243
aF0
aF0
aF1
aF1
aaa(lp1244
F30
aF0
a(lp1245
Vauto
p1246
aVauto
p1247
aF0
aF0
aF1
aF1
aaaaa(lp1248
Vtip_pivot
p1249
a(lp1250
(lp1251
F0
aF0
a(lp1252
Vauto
p1253
aVauto
p1254
aF0
aF0
aF1
aF1
aaa(lp1255
F15
aF0
a(lp1256
Vauto
p1257
aVauto
p1258
aF0
aF0
aF1
aF1
aaa(lp1259
F23
aF0
a(lp1260
Vauto
p1261
aVauto
p1262
aF0
aF0
aF1
aF1
aaa(lp1263
F30
aF0
a(lp1264
Vauto
p1265
aVauto
p1266
aF0
aF0
aF1
aF1
aaaaa(lp1267
Vtip_swivel
p1268
a(lp1269
(lp1270
F0
aF0
a(lp1271
Vauto
p1272
aVauto
p1273
aF0
aF0
aF1
aF1
aaa(lp1274
F15
aF0
a(lp1275
Vauto
p1276
aVauto
p1277
aF0
aF0
aF1
aF1
aaa(lp1278
F23
aF0
a(lp1279
Vauto
p1280
aVauto
p1281
aF0
aF0
aF1
aF1
aaa(lp1282
F30
aF0
a(lp1283
Vauto
p1284
aVauto
p1285
aF0
aF0
aF1
aF1
aaaaaaaaa(lp1286
S'ik_wrist_r_anim'
p1287
a(lp1288
(lp1289
Na(lp1290
(lp1291
VtranslateX
p1292
a(lp1293
(lp1294
F0
aF44.827348975238465
a(lp1295
Vauto
p1296
aVauto
p1297
aF0
aF0
aF0
aF0
aaaaa(lp1298
VtranslateY
p1299
a(lp1300
(lp1301
F0
aF-3.3990082825809118
a(lp1302
Vauto
p1303
aVauto
p1304
aF0
aF0
aF0
aF0
aaaaa(lp1305
VtranslateZ
p1306
a(lp1307
(lp1308
F0
aF-52.133751685034497
a(lp1309
Vauto
p1310
aVauto
p1311
aF0
aF0
aF0
aF0
aaaaa(lp1312
VrotateX
p1313
a(lp1314
(lp1315
F0
aF0
a(lp1316
Vauto
p1317
aVauto
p1318
aF0
aF0
aF0
aF0
aaaaa(lp1319
VrotateY
p1320
a(lp1321
(lp1322
F0
aF-79.853674276985402
a(lp1323
Vauto
p1324
aVauto
p1325
aF0
aF0
aF0
aF0
aaaaa(lp1326
VrotateZ
p1327
a(lp1328
(lp1329
F0
aF-0
a(lp1330
Vauto
p1331
aVauto
p1332
aF0
aF0
aF0
aF0
aaaaa(lp1333
Vstretch
p1334
a(lp1335
(lp1336
F0
aF0
a(lp1337
Vauto
p1338
aVauto
p1339
aF0
aF0
aF0
aF0
aaaaa(lp1340
Vsquash
p1341
a(lp1342
(lp1343
F0
aF0
a(lp1344
Vauto
p1345
aVauto
p1346
aF0
aF0
aF0
aF0
aaaaa(lp1347
Vside
p1348
a(lp1349
(lp1350
F0
aF0
a(lp1351
Vauto
p1352
aVauto
p1353
aF0
aF0
aF0
aF0
aaaaa(lp1354
Vmid_bend
p1355
a(lp1356
(lp1357
F0
aF0
a(lp1358
Vauto
p1359
aVauto
p1360
aF0
aF0
aF0
aF0
aaaaa(lp1361
Vmid_swivel
p1362
a(lp1363
(lp1364
F0
aF0
a(lp1365
Vauto
p1366
aVauto
p1367
aF0
aF0
aF0
aF0
aaaaa(lp1368
Vtip_pivot
p1369
a(lp1370
(lp1371
F0
aF0
a(lp1372
Vauto
p1373
aVauto
p1374
aF0
aF0
aF0
aF0
aaaaa(lp1375
Vtip_swivel
p1376
a(lp1377
(lp1378
F0
aF0
a(lp1379
Vauto
p1380
aVauto
p1381
aF0
aF0
aF0
aF0
aaaaaaaaa(lp1382
S'fk_thigh_l_anim'
p1383
a(lp1384
(lp1385
Na(lp1386
(lp1387
VrotateX
p1388
a(lp1389
(lp1390
F0
aF-2.8207063870240999e-16
a(lp1391
Vauto
p1392
aVauto
p1393
aF0
aF0
aF0
aF0
aaaaa(lp1394
VrotateY
p1395
a(lp1396
(lp1397
F0
aF1.5530052155583578e-18
a(lp1398
Vauto
p1399
aVauto
p1400
aF0
aF0
aF0
aF0
aaaaa(lp1401
VrotateZ
p1402
a(lp1403
(lp1404
F0
aF2.4848083448933725e-17
a(lp1405
Vauto
p1406
aVauto
p1407
aF0
aF0
aF0
aF0
aaaaaaaaa(lp1408
S'fk_thigh_r_anim'
p1409
a(lp1410
(lp1411
Na(lp1412
(lp1413
VrotateX
p1414
a(lp1415
(lp1416
F0
aF-5.8618667175380076e-16
a(lp1417
Vauto
p1418
aVauto
p1419
aF0
aF0
aF0
aF0
aaaaa(lp1420
VrotateY
p1421
a(lp1422
(lp1423
F0
aF-0
a(lp1424
Vauto
p1425
aVauto
p1426
aF0
aF0
aF0
aF0
aaaaa(lp1427
VrotateZ
p1428
a(lp1429
(lp1430
F0
aF2.4848083448933731e-17
a(lp1431
Vauto
p1432
aVauto
p1433
aF0
aF0
aF0
aF0
aaaaaaaaa(lp1434
S'fk_calf_l_anim'
p1435
a(lp1436
(lp1437
Na(lp1438
(lp1439
VrotateX
p1440
a(lp1441
(lp1442
F0
aF0
a(lp1443
Vauto
p1444
aVauto
p1445
aF0
aF0
aF0
aF0
aaaaa(lp1446
VrotateY
p1447
a(lp1448
(lp1449
F0
aF0
a(lp1450
Vauto
p1451
aVauto
p1452
aF0
aF0
aF0
aF0
aaaaa(lp1453
VrotateZ
p1454
a(lp1455
(lp1456
F0
aF0
a(lp1457
Vauto
p1458
aVauto
p1459
aF0
aF0
aF0
aF0
aaaaaaaaa(lp1460
S'fk_calf_r_anim'
p1461
a(lp1462
(lp1463
Na(lp1464
(lp1465
VrotateX
p1466
a(lp1467
(lp1468
F0
aF0
a(lp1469
Vauto
p1470
aVauto
p1471
aF0
aF0
aF0
aF0
aaaaa(lp1472
VrotateY
p1473
a(lp1474
(lp1475
F0
aF0
a(lp1476
Vauto
p1477
aVauto
p1478
aF0
aF0
aF0
aF0
aaaaa(lp1479
VrotateZ
p1480
a(lp1481
(lp1482
F0
aF0
a(lp1483
Vauto
p1484
aVauto
p1485
aF0
aF0
aF0
aF0
aaaaaaaaa(lp1486
S'fk_foot_l_anim'
p1487
a(lp1488
(lp1489
Na(lp1490
(lp1491
VrotateX
p1492
a(lp1493
(lp1494
F0
aF0
a(lp1495
Vauto
p1496
aVauto
p1497
aF0
aF0
aF0
aF0
aaaaa(lp1498
VrotateY
p1499
a(lp1500
(lp1501
F0
aF0
a(lp1502
Vauto
p1503
aVauto
p1504
aF0
aF0
aF0
aF0
aaaaa(lp1505
VrotateZ
p1506
a(lp1507
(lp1508
F0
aF0
a(lp1509
Vauto
p1510
aVauto
p1511
aF0
aF0
aF0
aF0
aaaaaaaaa(lp1512
S'fk_foot_r_anim'
p1513
a(lp1514
(lp1515
Na(lp1516
(lp1517
VrotateX
p1518
a(lp1519
(lp1520
F0
aF-3.7635228676863548e-44
a(lp1521
Vauto
p1522
aVauto
p1523
aF0
aF0
aF0
aF0
aaaaa(lp1524
VrotateY
p1525
a(lp1526
(lp1527
F0
aF-0
a(lp1528
Vauto
p1529
aVauto
p1530
aF0
aF0
aF0
aF0
aaaaa(lp1531
VrotateZ
p1532
a(lp1533
(lp1534
F0
aF0
a(lp1535
Vauto
p1536
aVauto
p1537
aF0
aF0
aF0
aF0
aaaaaaaaa(lp1538
S'fk_ball_l_anim'
p1539
a(lp1540
(lp1541
Na(lp1542
(lp1543
VrotateX
p1544
a(lp1545
(lp1546
F0
aF1.1299600123008406e-29
a(lp1547
Vauto
p1548
aVauto
p1549
aF0
aF0
aF0
aF0
aaaaa(lp1550
VrotateY
p1551
a(lp1552
(lp1553
F0
aF-0
a(lp1554
Vauto
p1555
aVauto
p1556
aF0
aF0
aF0
aF0
aaaaa(lp1557
VrotateZ
p1558
a(lp1559
(lp1560
F0
aF0
a(lp1561
Vauto
p1562
aVauto
p1563
aF0
aF0
aF0
aF0
aaaaaaaaa(lp1564
S'fk_ball_r_anim'
p1565
a(lp1566
(lp1567
Na(lp1568
(lp1569
VrotateX
p1570
a(lp1571
(lp1572
F0
aF0
a(lp1573
Vauto
p1574
aVauto
p1575
aF0
aF0
aF0
aF0
aaaaa(lp1576
VrotateY
p1577
a(lp1578
(lp1579
F0
aF-2.6483437402281104e-30
a(lp1580
Vauto
p1581
aVauto
p1582
aF0
aF0
aF0
aF0
aaaaa(lp1583
VrotateZ
p1584
a(lp1585
(lp1586
F0
aF0
a(lp1587
Vauto
p1588
aVauto
p1589
aF0
aF0
aF0
aF0
aaaaaaaaa(lp1590
S'ik_foot_anim_l'
p1591
a(lp1592
(lp1593
Na(lp1594
(lp1595
VtranslateX
p1596
a(lp1597
(lp1598
F0
aF3.4670270854457668
a(lp1599
Vauto
p1600
aVauto
p1601
aF0
aF0
aF0
aF0
aaaaa(lp1602
VtranslateY
p1603
a(lp1604
(lp1605
F0
aF0
a(lp1606
Vauto
p1607
aVauto
p1608
aF0
aF0
aF0
aF0
aaaaa(lp1609
VtranslateZ
p1610
a(lp1611
(lp1612
F0
aF-1.7763568394002505e-15
a(lp1613
Vauto
p1614
aVauto
p1615
aF0
aF0
aF0
aF0
aaaaa(lp1616
VrotateX
p1617
a(lp1618
(lp1619
F0
aF0
a(lp1620
Vauto
p1621
aVauto
p1622
aF0
aF0
aF0
aF0
aaaaa(lp1623
VrotateY
p1624
a(lp1625
(lp1626
F0
aF0
a(lp1627
Vauto
p1628
aVauto
p1629
aF0
aF0
aF0
aF0
aaaaa(lp1630
VrotateZ
p1631
a(lp1632
(lp1633
F0
aF0
a(lp1634
Vauto
p1635
aVauto
p1636
aF0
aF0
aF0
aF0
aaaaa(lp1637
Vknee_twist
p1638
a(lp1639
(lp1640
F0
aF0
a(lp1641
Vauto
p1642
aVauto
p1643
aF0
aF0
aF0
aF0
aaaaa(lp1644
Vstretch
p1645
a(lp1646
(lp1647
F0
aF0
a(lp1648
Vauto
p1649
aVauto
p1650
aF0
aF0
aF0
aF0
aaaaa(lp1651
Vsquash
p1652
a(lp1653
(lp1654
F0
aF0
a(lp1655
Vauto
p1656
aVauto
p1657
aF0
aF0
aF0
aF0
aaaaa(lp1658
VtoeCtrlVis
p1659
a(lp1660
(lp1661
F0
aF0
a(lp1662
Vspline
p1663
aVstep
p1664
aF0
aF0
aF1
aF0
aaaaaaaaa(lp1665
S'ik_foot_anim_r'
p1666
a(lp1667
(lp1668
Na(lp1669
(lp1670
VtranslateX
p1671
a(lp1672
(lp1673
F0
aF-3.4670270854457668
a(lp1674
Vauto
p1675
aVauto
p1676
aF0
aF0
aF0
aF0
aaaaa(lp1677
VtranslateY
p1678
a(lp1679
(lp1680
F0
aF0
a(lp1681
Vauto
p1682
aVauto
p1683
aF0
aF0
aF0
aF0
aaaaa(lp1684
VtranslateZ
p1685
a(lp1686
(lp1687
F0
aF-1.7763568394002505e-15
a(lp1688
Vauto
p1689
aVauto
p1690
aF0
aF0
aF0
aF0
aaaaa(lp1691
VrotateX
p1692
a(lp1693
(lp1694
F0
aF0
a(lp1695
Vauto
p1696
aVauto
p1697
aF0
aF0
aF0
aF0
aaaaa(lp1698
VrotateY
p1699
a(lp1700
(lp1701
F0
aF-0
a(lp1702
Vauto
p1703
aVauto
p1704
aF0
aF0
aF0
aF0
aaaaa(lp1705
VrotateZ
p1706
a(lp1707
(lp1708
F0
aF-0
a(lp1709
Vauto
p1710
aVauto
p1711
aF0
aF0
aF0
aF0
aaaaa(lp1712
Vknee_twist
p1713
a(lp1714
(lp1715
F0
aF0
a(lp1716
Vauto
p1717
aVauto
p1718
aF0
aF0
aF0
aF0
aaaaa(lp1719
Vstretch
p1720
a(lp1721
(lp1722
F0
aF0
a(lp1723
Vauto
p1724
aVauto
p1725
aF0
aF0
aF0
aF0
aaaaa(lp1726
Vsquash
p1727
a(lp1728
(lp1729
F0
aF0
a(lp1730
Vauto
p1731
aVauto
p1732
aF0
aF0
aF0
aF0
aaaaa(lp1733
VtoeCtrlVis
p1734
a(lp1735
(lp1736
F0
aF0
a(lp1737
Vspline
p1738
aVstep
p1739
aF0
aF0
aF1
aF0
aaaaaaaaa(lp1740
S'heel_ctrl_l'
p1741
a(lp1742
(lp1743
Na(lp1744
(lp1745
VrotateX
p1746
a(lp1747
(lp1748
F0
aF2.1181581302668755e-13
a(lp1749
Vauto
p1750
aVauto
p1751
aF0
aF0
aF0
aF0
aaaaa(lp1752
VrotateY
p1753
a(lp1754
(lp1755
F0
aF1.9406353173617244e-14
a(lp1756
Vauto
p1757
aVauto
p1758
aF0
aF0
aF0
aF0
aaaaa(lp1759
VrotateZ
p1760
a(lp1761
(lp1762
F0
aF0
a(lp1763
Vauto
p1764
aVauto
p1765
aF0
aF0
aF0
aF0
aaaaa(lp1766
VheelPivot
p1767
a(lp1768
(lp1769
F0
aF0
a(lp1770
Vauto
p1771
aVauto
p1772
aF0
aF0
aF0
aF0
aaaaa(lp1773
VballPivot
p1774
a(lp1775
(lp1776
F0
aF0
a(lp1777
Vauto
p1778
aVauto
p1779
aF0
aF0
aF0
aF0
aaaaaaaaa(lp1780
S'heel_ctrl_r'
p1781
a(lp1782
(lp1783
Na(lp1784
(lp1785
VrotateX
p1786
a(lp1787
(lp1788
F0
aF1.8251426873078172e-13
a(lp1789
Vauto
p1790
aVauto
p1791
aF0
aF0
aF0
aF0
aaaaa(lp1792
VrotateY
p1793
a(lp1794
(lp1795
F0
aF-1.2709794684129595e-14
a(lp1796
Vauto
p1797
aVauto
p1798
aF0
aF0
aF0
aF0
aaaaa(lp1799
VrotateZ
p1800
a(lp1801
(lp1802
F0
aF0
a(lp1803
Vauto
p1804
aVauto
p1805
aF0
aF0
aF0
aF0
aaaaa(lp1806
VheelPivot
p1807
a(lp1808
(lp1809
F0
aF0
a(lp1810
Vauto
p1811
aVauto
p1812
aF0
aF0
aF0
aF0
aaaaa(lp1813
VballPivot
p1814
a(lp1815
(lp1816
F0
aF0
a(lp1817
Vauto
p1818
aVauto
p1819
aF0
aF0
aF0
aF0
aaaaaaaaa(lp1820
S'toe_wiggle_ctrl_l'
p1821
a(lp1822
(lp1823
Na(lp1824
(lp1825
VrotateX
p1826
a(lp1827
(lp1828
F0
aF0
a(lp1829
Vauto
p1830
aVauto
p1831
aF0
aF0
aF0
aF0
aaaaa(lp1832
VrotateY
p1833
a(lp1834
(lp1835
F0
aF1.765562493485407e-31
a(lp1836
Vauto
p1837
aVauto
p1838
aF0
aF0
aF0
aF0
aaaaa(lp1839
VrotateZ
p1840
a(lp1841
(lp1842
F0
aF0
a(lp1843
Vauto
p1844
aVauto
p1845
aF0
aF0
aF0
aF0
aaaaaaaaa(lp1846
S'toe_wiggle_ctrl_r'
p1847
a(lp1848
(lp1849
Na(lp1850
(lp1851
VrotateX
p1852
a(lp1853
(lp1854
F0
aF0
a(lp1855
Vauto
p1856
aVauto
p1857
aF0
aF0
aF0
aF0
aaaaa(lp1858
VrotateY
p1859
a(lp1860
(lp1861
F0
aF1.765562493485407e-31
a(lp1862
Vauto
p1863
aVauto
p1864
aF0
aF0
aF0
aF0
aaaaa(lp1865
VrotateZ
p1866
a(lp1867
(lp1868
F0
aF0
a(lp1869
Vauto
p1870
aVauto
p1871
aF0
aF0
aF0
aF0
aaaaaaaaa(lp1872
S'toe_tip_ctrl_l'
p1873
a(lp1874
(lp1875
Na(lp1876
(lp1877
VrotateX
p1878
a(lp1879
(lp1880
F0
aF0
a(lp1881
Vauto
p1882
aVauto
p1883
aF0
aF0
aF0
aF0
aaaaa(lp1884
VrotateY
p1885
a(lp1886
(lp1887
F0
aF1.765562493485407e-31
a(lp1888
Vauto
p1889
aVauto
p1890
aF0
aF0
aF0
aF0
aaaaa(lp1891
VrotateZ
p1892
a(lp1893
(lp1894
F0
aF0
a(lp1895
Vauto
p1896
aVauto
p1897
aF0
aF0
aF0
aF0
aaaaaaaaa(lp1898
S'toe_tip_ctrl_r'
p1899
a(lp1900
(lp1901
Na(lp1902
(lp1903
VrotateX
p1904
a(lp1905
(lp1906
F0
aF0
a(lp1907
Vauto
p1908
aVauto
p1909
aF0
aF0
aF0
aF0
aaaaa(lp1910
VrotateY
p1911
a(lp1912
(lp1913
F0
aF1.765562493485407e-31
a(lp1914
Vauto
p1915
aVauto
p1916
aF0
aF0
aF0
aF0
aaaaa(lp1917
VrotateZ
p1918
a(lp1919
(lp1920
F0
aF0
a(lp1921
Vauto
p1922
aVauto
p1923
aF0
aF0
aF0
aF0
aaaaaaaaa(lp1924
S'master_anim'
p1925
a(lp1926
(lp1927
Na(lp1928
(lp1929
VtranslateX
p1930
a(lp1931
(lp1932
F0
aF0
a(lp1933
Vauto
p1934
aVauto
p1935
aF0
aF0
aF0
aF0
aaaaa(lp1936
VtranslateY
p1937
a(lp1938
(lp1939
F0
aF0
a(lp1940
Vauto
p1941
aVauto
p1942
aF0
aF0
aF0
aF0
aaaaa(lp1943
VtranslateZ
p1944
a(lp1945
(lp1946
F0
aF0
a(lp1947
Vauto
p1948
aVauto
p1949
aF0
aF0
aF0
aF0
aaaaa(lp1950
VrotateX
p1951
a(lp1952
(lp1953
F0
aF0
a(lp1954
Vauto
p1955
aVauto
p1956
aF0
aF0
aF0
aF0
aaaaa(lp1957
VrotateY
p1958
a(lp1959
(lp1960
F0
aF0
a(lp1961
Vauto
p1962
aVauto
p1963
aF0
aF0
aF0
aF0
aaaaa(lp1964
VrotateZ
p1965
a(lp1966
(lp1967
F0
aF0
a(lp1968
Vauto
p1969
aVauto
p1970
aF0
aF0
aF0
aF0
aaaaaaaaa(lp1971
S'offset_anim'
p1972
a(lp1973
(lp1974
Na(lp1975
(lp1976
VtranslateX
p1977
a(lp1978
(lp1979
F0
aF0
a(lp1980
Vauto
p1981
aVauto
p1982
aF0
aF0
aF0
aF0
aaaaa(lp1983
VtranslateY
p1984
a(lp1985
(lp1986
F0
aF0
a(lp1987
Vauto
p1988
aVauto
p1989
aF0
aF0
aF0
aF0
aaaaa(lp1990
VtranslateZ
p1991
a(lp1992
(lp1993
F0
aF0
a(lp1994
Vauto
p1995
aVauto
p1996
aF0
aF0
aF0
aF0
aaaaa(lp1997
VrotateX
p1998
a(lp1999
(lp2000
F0
aF0
a(lp2001
Vauto
p2002
aVauto
p2003
aF0
aF0
aF0
aF0
aaaaa(lp2004
VrotateY
p2005
a(lp2006
(lp2007
F0
aF0
a(lp2008
Vauto
p2009
aVauto
p2010
aF0
aF0
aF0
aF0
aaaaa(lp2011
VrotateZ
p2012
a(lp2013
(lp2014
F0
aF0
a(lp2015
Vauto
p2016
aVauto
p2017
aF0
aF0
aF0
aF0
aaaaaaaaa(lp2018
S'root_anim'
p2019
a(lp2020
(lp2021
Na(lp2022
(lp2023
VtranslateX
p2024
a(lp2025
(lp2026
F0
aF0
a(lp2027
Vauto
p2028
aVauto
p2029
aF0
aF0
aF0
aF0
aaaaa(lp2030
VtranslateY
p2031
a(lp2032
(lp2033
F0
aF0
a(lp2034
Vauto
p2035
aVauto
p2036
aF0
aF0
aF0
aF0
aaaaa(lp2037
VtranslateZ
p2038
a(lp2039
(lp2040
F0
aF0
a(lp2041
Vauto
p2042
aVauto
p2043
aF0
aF0
aF0
aF0
aaaaa(lp2044
VrotateX
p2045
a(lp2046
(lp2047
F0
aF0
a(lp2048
Vauto
p2049
aVauto
p2050
aF0
aF0
aF0
aF0
aaaaa(lp2051
VrotateY
p2052
a(lp2053
(lp2054
F0
aF0
a(lp2055
Vauto
p2056
aVauto
p2057
aF0
aF0
aF0
aF0
aaaaa(lp2058
VrotateZ
p2059
a(lp2060
(lp2061
F0
aF0
a(lp2062
Vauto
p2063
aVauto
p2064
aF0
aF0
aF0
aF0
aaaaaaaaa(lp2065
S'upperarm_l_twist_anim'
p2066
a(lp2067
(lp2068
Na(lp2069
(lp2070
VtranslateX
p2071
a(lp2072
(lp2073
F0
aF0
a(lp2074
Vauto
p2075
aVauto
p2076
aF0
aF0
aF0
aF0
aaaaa(lp2077
VtranslateY
p2078
a(lp2079
(lp2080
F0
aF0
a(lp2081
Vauto
p2082
aVauto
p2083
aF0
aF0
aF0
aF0
aaaaa(lp2084
VtranslateZ
p2085
a(lp2086
(lp2087
F0
aF0
a(lp2088
Vauto
p2089
aVauto
p2090
aF0
aF0
aF0
aF0
aaaaa(lp2091
VrotateX
p2092
a(lp2093
(lp2094
F0
aF0
a(lp2095
Vauto
p2096
aVauto
p2097
aF0
aF0
aF0
aF0
aaaaa(lp2098
VrotateY
p2099
a(lp2100
(lp2101
F0
aF0
a(lp2102
Vauto
p2103
aVauto
p2104
aF0
aF0
aF0
aF0
aaaaa(lp2105
VrotateZ
p2106
a(lp2107
(lp2108
F0
aF0
a(lp2109
Vauto
p2110
aVauto
p2111
aF0
aF0
aF0
aF0
aaaaa(lp2112
VscaleX
p2113
a(lp2114
(lp2115
F0
aF1
a(lp2116
Vauto
p2117
aVauto
p2118
aF0
aF0
aF0
aF0
aaaaa(lp2119
VscaleY
p2120
a(lp2121
(lp2122
F0
aF1
a(lp2123
Vauto
p2124
aVauto
p2125
aF0
aF0
aF0
aF0
aaaaa(lp2126
VscaleZ
p2127
a(lp2128
(lp2129
F0
aF1
a(lp2130
Vauto
p2131
aVauto
p2132
aF0
aF0
aF0
aF0
aaaaaaaaa(lp2133
S'upperarm_r_twist_anim'
p2134
a(lp2135
(lp2136
Na(lp2137
(lp2138
VtranslateX
p2139
a(lp2140
(lp2141
F0
aF0
a(lp2142
Vauto
p2143
aVauto
p2144
aF0
aF0
aF0
aF0
aaaaa(lp2145
VtranslateY
p2146
a(lp2147
(lp2148
F0
aF0
a(lp2149
Vauto
p2150
aVauto
p2151
aF0
aF0
aF0
aF0
aaaaa(lp2152
VtranslateZ
p2153
a(lp2154
(lp2155
F0
aF0
a(lp2156
Vauto
p2157
aVauto
p2158
aF0
aF0
aF0
aF0
aaaaa(lp2159
VrotateX
p2160
a(lp2161
(lp2162
F0
aF0
a(lp2163
Vauto
p2164
aVauto
p2165
aF0
aF0
aF0
aF0
aaaaa(lp2166
VrotateY
p2167
a(lp2168
(lp2169
F0
aF0
a(lp2170
Vauto
p2171
aVauto
p2172
aF0
aF0
aF0
aF0
aaaaa(lp2173
VrotateZ
p2174
a(lp2175
(lp2176
F0
aF0
a(lp2177
Vauto
p2178
aVauto
p2179
aF0
aF0
aF0
aF0
aaaaa(lp2180
VscaleX
p2181
a(lp2182
(lp2183
F0
aF1
a(lp2184
Vauto
p2185
aVauto
p2186
aF0
aF0
aF0
aF0
aaaaa(lp2187
VscaleY
p2188
a(lp2189
(lp2190
F0
aF1
a(lp2191
Vauto
p2192
aVauto
p2193
aF0
aF0
aF0
aF0
aaaaa(lp2194
VscaleZ
p2195
a(lp2196
(lp2197
F0
aF1
a(lp2198
Vauto
p2199
aVauto
p2200
aF0
aF0
aF0
aF0
aaaaaaaaa(lp2201
S'thigh_l_twist_anim'
p2202
a(lp2203
(lp2204
Na(lp2205
(lp2206
VtranslateX
p2207
a(lp2208
(lp2209
F0
aF0
a(lp2210
Vauto
p2211
aVauto
p2212
aF0
aF0
aF0
aF0
aaaaa(lp2213
VtranslateY
p2214
a(lp2215
(lp2216
F0
aF0
a(lp2217
Vauto
p2218
aVauto
p2219
aF0
aF0
aF0
aF0
aaaaa(lp2220
VtranslateZ
p2221
a(lp2222
(lp2223
F0
aF0
a(lp2224
Vauto
p2225
aVauto
p2226
aF0
aF0
aF0
aF0
aaaaa(lp2227
VrotateX
p2228
a(lp2229
(lp2230
F0
aF0
a(lp2231
Vauto
p2232
aVauto
p2233
aF0
aF0
aF0
aF0
aaaaa(lp2234
VrotateY
p2235
a(lp2236
(lp2237
F0
aF0
a(lp2238
Vauto
p2239
aVauto
p2240
aF0
aF0
aF0
aF0
aaaaa(lp2241
VrotateZ
p2242
a(lp2243
(lp2244
F0
aF0
a(lp2245
Vauto
p2246
aVauto
p2247
aF0
aF0
aF0
aF0
aaaaaaaaa(lp2248
S'thigh_r_twist_anim'
p2249
a(lp2250
(lp2251
Na(lp2252
(lp2253
VtranslateX
p2254
a(lp2255
(lp2256
F0
aF0
a(lp2257
Vauto
p2258
aVauto
p2259
aF0
aF0
aF0
aF0
aaaaa(lp2260
VtranslateY
p2261
a(lp2262
(lp2263
F0
aF0
a(lp2264
Vauto
p2265
aVauto
p2266
aF0
aF0
aF0
aF0
aaaaa(lp2267
VtranslateZ
p2268
a(lp2269
(lp2270
F0
aF0
a(lp2271
Vauto
p2272
aVauto
p2273
aF0
aF0
aF0
aF0
aaaaa(lp2274
VrotateX
p2275
a(lp2276
(lp2277
F0
aF0
a(lp2278
Vauto
p2279
aVauto
p2280
aF0
aF0
aF0
aF0
aaaaa(lp2281
VrotateY
p2282
a(lp2283
(lp2284
F0
aF0
a(lp2285
Vauto
p2286
aVauto
p2287
aF0
aF0
aF0
aF0
aaaaa(lp2288
VrotateZ
p2289
a(lp2290
(lp2291
F0
aF0
a(lp2292
Vauto
p2293
aVauto
p2294
aF0
aF0
aF0
aF0
aaaaaaaaa(lp2295
S'pinky_metacarpal_ctrl_l'
p2296
a(lp2297
(lp2298
Na(lp2299
(lp2300
VrotateX
p2301
a(lp2302
(lp2303
F0
aF0
a(lp2304
Vauto
p2305
aVauto
p2306
aF0
aF0
aF0
aF0
aaaaa(lp2307
VrotateY
p2308
a(lp2309
(lp2310
F0
aF0.29436197409999998
a(lp2311
Vauto
p2312
aVauto
p2313
aF0
aF0
aF0
aF0
aaaaa(lp2314
VrotateZ
p2315
a(lp2316
(lp2317
F0
aF3.1550583470000002
a(lp2318
Vauto
p2319
aVauto
p2320
aF0
aF0
aF0
aF0
aaaaaaaaa(lp2321
S'pinky_metacarpal_ctrl_r'
p2322
a(lp2323
(lp2324
Na(lp2325
(lp2326
VrotateX
p2327
a(lp2328
(lp2329
F0
aF0
a(lp2330
Vauto
p2331
aVauto
p2332
aF0
aF0
aF0
aF0
aaaaa(lp2333
VrotateY
p2334
a(lp2335
(lp2336
F0
aF0.29436197409999998
a(lp2337
Vauto
p2338
aVauto
p2339
aF0
aF0
aF0
aF0
aaaaa(lp2340
VrotateZ
p2341
a(lp2342
(lp2343
F0
aF3.1550583470000002
a(lp2344
Vauto
p2345
aVauto
p2346
aF0
aF0
aF0
aF0
aaaaaaaaa(lp2347
S'pinky_finger_fk_ctrl_1_l'
p2348
a(lp2349
(lp2350
Na(lp2351
(lp2352
VtranslateX
p2353
a(lp2354
(lp2355
F0
aF0
a(lp2356
Vauto
p2357
aVauto
p2358
aF0
aF0
aF0
aF0
aaaaa(lp2359
VtranslateY
p2360
a(lp2361
(lp2362
F0
aF0
a(lp2363
Vauto
p2364
aVauto
p2365
aF0
aF0
aF0
aF0
aaaaa(lp2366
VtranslateZ
p2367
a(lp2368
(lp2369
F0
aF0
a(lp2370
Vauto
p2371
aVauto
p2372
aF0
aF0
aF0
aF0
aaaaa(lp2373
VrotateX
p2374
a(lp2375
(lp2376
F0
aF-0.4250018418
a(lp2377
Vauto
p2378
aVauto
p2379
aF0
aF0
aF0
aF0
aaaaa(lp2380
VrotateY
p2381
a(lp2382
(lp2383
F0
aF6.4714769199999997
a(lp2384
Vauto
p2385
aVauto
p2386
aF0
aF0
aF0
aF0
aaaaa(lp2387
VrotateZ
p2388
a(lp2389
(lp2390
F0
aF7.9148873250000005
a(lp2391
Vauto
p2392
aVauto
p2393
aF0
aF0
aF0
aF0
aaaaa(lp2394
Vsticky
p2395
a(lp2396
(lp2397
F0
aF0
a(lp2398
Vauto
p2399
aVauto
p2400
aF0
aF0
aF0
aF0
aaaaaaaaa(lp2401
S'pinky_finger_fk_ctrl_1_r'
p2402
a(lp2403
(lp2404
Na(lp2405
(lp2406
VtranslateX
p2407
a(lp2408
(lp2409
F0
aF0
a(lp2410
Vauto
p2411
aVauto
p2412
aF0
aF0
aF0
aF0
aaaaa(lp2413
VtranslateY
p2414
a(lp2415
(lp2416
F0
aF0
a(lp2417
Vauto
p2418
aVauto
p2419
aF0
aF0
aF0
aF0
aaaaa(lp2420
VtranslateZ
p2421
a(lp2422
(lp2423
F0
aF0
a(lp2424
Vauto
p2425
aVauto
p2426
aF0
aF0
aF0
aF0
aaaaa(lp2427
VrotateX
p2428
a(lp2429
(lp2430
F0
aF-0.4250018418
a(lp2431
Vauto
p2432
aVauto
p2433
aF0
aF0
aF0
aF0
aaaaa(lp2434
VrotateY
p2435
a(lp2436
(lp2437
F0
aF6.4714769199999997
a(lp2438
Vauto
p2439
aVauto
p2440
aF0
aF0
aF0
aF0
aaaaa(lp2441
VrotateZ
p2442
a(lp2443
(lp2444
F0
aF7.9148873250000005
a(lp2445
Vauto
p2446
aVauto
p2447
aF0
aF0
aF0
aF0
aaaaa(lp2448
Vsticky
p2449
a(lp2450
(lp2451
F0
aF0
a(lp2452
Vauto
p2453
aVauto
p2454
aF0
aF0
aF0
aF0
aaaaaaaaa(lp2455
S'pinky_finger_fk_ctrl_2_l'
p2456
a(lp2457
(lp2458
Na(lp2459
(lp2460
VtranslateX
p2461
a(lp2462
(lp2463
F0
aF0
a(lp2464
Vauto
p2465
aVauto
p2466
aF0
aF0
aF0
aF0
aaaaa(lp2467
VtranslateY
p2468
a(lp2469
(lp2470
F0
aF0
a(lp2471
Vauto
p2472
aVauto
p2473
aF0
aF0
aF0
aF0
aaaaa(lp2474
VtranslateZ
p2475
a(lp2476
(lp2477
F0
aF0
a(lp2478
Vauto
p2479
aVauto
p2480
aF0
aF0
aF0
aF0
aaaaa(lp2481
VrotateX
p2482
a(lp2483
(lp2484
F0
aF0
a(lp2485
Vauto
p2486
aVauto
p2487
aF0
aF0
aF0
aF0
aaaaa(lp2488
VrotateY
p2489
a(lp2490
(lp2491
F0
aF0
a(lp2492
Vauto
p2493
aVauto
p2494
aF0
aF0
aF0
aF0
aaaaa(lp2495
VrotateZ
p2496
a(lp2497
(lp2498
F0
aF39.3905174
a(lp2499
Vauto
p2500
aVauto
p2501
aF0
aF0
aF0
aF0
aaaaaaaaa(lp2502
S'pinky_finger_fk_ctrl_2_r'
p2503
a(lp2504
(lp2505
Na(lp2506
(lp2507
VtranslateX
p2508
a(lp2509
(lp2510
F0
aF0
a(lp2511
Vauto
p2512
aVauto
p2513
aF0
aF0
aF0
aF0
aaaaa(lp2514
VtranslateY
p2515
a(lp2516
(lp2517
F0
aF0
a(lp2518
Vauto
p2519
aVauto
p2520
aF0
aF0
aF0
aF0
aaaaa(lp2521
VtranslateZ
p2522
a(lp2523
(lp2524
F0
aF0
a(lp2525
Vauto
p2526
aVauto
p2527
aF0
aF0
aF0
aF0
aaaaa(lp2528
VrotateX
p2529
a(lp2530
(lp2531
F0
aF0
a(lp2532
Vauto
p2533
aVauto
p2534
aF0
aF0
aF0
aF0
aaaaa(lp2535
VrotateY
p2536
a(lp2537
(lp2538
F0
aF0
a(lp2539
Vauto
p2540
aVauto
p2541
aF0
aF0
aF0
aF0
aaaaa(lp2542
VrotateZ
p2543
a(lp2544
(lp2545
F0
aF39.3905174
a(lp2546
Vauto
p2547
aVauto
p2548
aF0
aF0
aF0
aF0
aaaaaaaaa(lp2549
S'pinky_finger_fk_ctrl_3_l'
p2550
a(lp2551
(lp2552
Na(lp2553
(lp2554
VtranslateX
p2555
a(lp2556
(lp2557
F0
aF0
a(lp2558
Vauto
p2559
aVauto
p2560
aF0
aF0
aF0
aF0
aaaaa(lp2561
VtranslateY
p2562
a(lp2563
(lp2564
F0
aF0
a(lp2565
Vauto
p2566
aVauto
p2567
aF0
aF0
aF0
aF0
aaaaa(lp2568
VtranslateZ
p2569
a(lp2570
(lp2571
F0
aF0
a(lp2572
Vauto
p2573
aVauto
p2574
aF0
aF0
aF0
aF0
aaaaa(lp2575
VrotateX
p2576
a(lp2577
(lp2578
F0
aF0
a(lp2579
Vauto
p2580
aVauto
p2581
aF0
aF0
aF0
aF0
aaaaa(lp2582
VrotateY
p2583
a(lp2584
(lp2585
F0
aF0
a(lp2586
Vauto
p2587
aVauto
p2588
aF0
aF0
aF0
aF0
aaaaa(lp2589
VrotateZ
p2590
a(lp2591
(lp2592
F0
aF12.804350980000001
a(lp2593
Vauto
p2594
aVauto
p2595
aF0
aF0
aF0
aF0
aaaaaaaaa(lp2596
S'pinky_finger_fk_ctrl_3_r'
p2597
a(lp2598
(lp2599
Na(lp2600
(lp2601
VtranslateX
p2602
a(lp2603
(lp2604
F0
aF0
a(lp2605
Vauto
p2606
aVauto
p2607
aF0
aF0
aF0
aF0
aaaaa(lp2608
VtranslateY
p2609
a(lp2610
(lp2611
F0
aF0
a(lp2612
Vauto
p2613
aVauto
p2614
aF0
aF0
aF0
aF0
aaaaa(lp2615
VtranslateZ
p2616
a(lp2617
(lp2618
F0
aF0
a(lp2619
Vauto
p2620
aVauto
p2621
aF0
aF0
aF0
aF0
aaaaa(lp2622
VrotateX
p2623
a(lp2624
(lp2625
F0
aF0
a(lp2626
Vauto
p2627
aVauto
p2628
aF0
aF0
aF0
aF0
aaaaa(lp2629
VrotateY
p2630
a(lp2631
(lp2632
F0
aF0
a(lp2633
Vauto
p2634
aVauto
p2635
aF0
aF0
aF0
aF0
aaaaa(lp2636
VrotateZ
p2637
a(lp2638
(lp2639
F0
aF12.804350980000001
a(lp2640
Vauto
p2641
aVauto
p2642
aF0
aF0
aF0
aF0
aaaaaaaaa(lp2643
S'ring_metacarpal_ctrl_l'
p2644
a(lp2645
(lp2646
Na(lp2647
(lp2648
VrotateX
p2649
a(lp2650
(lp2651
F0
aF0
a(lp2652
Vauto
p2653
aVauto
p2654
aF0
aF0
aF0
aF0
aaaaa(lp2655
VrotateY
p2656
a(lp2657
(lp2658
F0
aF0
a(lp2659
Vauto
p2660
aVauto
p2661
aF0
aF0
aF0
aF0
aaaaa(lp2662
VrotateZ
p2663
a(lp2664
(lp2665
F0
aF0
a(lp2666
Vauto
p2667
aVauto
p2668
aF0
aF0
aF0
aF0
aaaaaaaaa(lp2669
S'ring_metacarpal_ctrl_r'
p2670
a(lp2671
(lp2672
Na(lp2673
(lp2674
VrotateX
p2675
a(lp2676
(lp2677
F0
aF0
a(lp2678
Vauto
p2679
aVauto
p2680
aF0
aF0
aF0
aF0
aaaaa(lp2681
VrotateY
p2682
a(lp2683
(lp2684
F0
aF0
a(lp2685
Vauto
p2686
aVauto
p2687
aF0
aF0
aF0
aF0
aaaaa(lp2688
VrotateZ
p2689
a(lp2690
(lp2691
F0
aF0
a(lp2692
Vauto
p2693
aVauto
p2694
aF0
aF0
aF0
aF0
aaaaaaaaa(lp2695
S'ring_finger_fk_ctrl_1_l'
p2696
a(lp2697
(lp2698
Na(lp2699
(lp2700
VtranslateX
p2701
a(lp2702
(lp2703
F0
aF0
a(lp2704
Vauto
p2705
aVauto
p2706
aF0
aF0
aF0
aF0
aaaaa(lp2707
VtranslateY
p2708
a(lp2709
(lp2710
F0
aF0
a(lp2711
Vauto
p2712
aVauto
p2713
aF0
aF0
aF0
aF0
aaaaa(lp2714
VtranslateZ
p2715
a(lp2716
(lp2717
F0
aF0
a(lp2718
Vauto
p2719
aVauto
p2720
aF0
aF0
aF0
aF0
aaaaa(lp2721
VrotateX
p2722
a(lp2723
(lp2724
F0
aF0.12218283760000001
a(lp2725
Vauto
p2726
aVauto
p2727
aF0
aF0
aF0
aF0
aaaaa(lp2728
VrotateY
p2729
a(lp2730
(lp2731
F0
aF1.3051238380000001
a(lp2732
Vauto
p2733
aVauto
p2734
aF0
aF0
aF0
aF0
aaaaa(lp2735
VrotateZ
p2736
a(lp2737
(lp2738
F0
aF9.6923258879999992
a(lp2739
Vauto
p2740
aVauto
p2741
aF0
aF0
aF0
aF0
aaaaa(lp2742
Vsticky
p2743
a(lp2744
(lp2745
F0
aF0
a(lp2746
Vauto
p2747
aVauto
p2748
aF0
aF0
aF0
aF0
aaaaaaaaa(lp2749
S'ring_finger_fk_ctrl_1_r'
p2750
a(lp2751
(lp2752
Na(lp2753
(lp2754
VtranslateX
p2755
a(lp2756
(lp2757
F0
aF0
a(lp2758
Vauto
p2759
aVauto
p2760
aF0
aF0
aF0
aF0
aaaaa(lp2761
VtranslateY
p2762
a(lp2763
(lp2764
F0
aF0
a(lp2765
Vauto
p2766
aVauto
p2767
aF0
aF0
aF0
aF0
aaaaa(lp2768
VtranslateZ
p2769
a(lp2770
(lp2771
F0
aF0
a(lp2772
Vauto
p2773
aVauto
p2774
aF0
aF0
aF0
aF0
aaaaa(lp2775
VrotateX
p2776
a(lp2777
(lp2778
F0
aF0.12218283760000001
a(lp2779
Vauto
p2780
aVauto
p2781
aF0
aF0
aF0
aF0
aaaaa(lp2782
VrotateY
p2783
a(lp2784
(lp2785
F0
aF1.3051238380000001
a(lp2786
Vauto
p2787
aVauto
p2788
aF0
aF0
aF0
aF0
aaaaa(lp2789
VrotateZ
p2790
a(lp2791
(lp2792
F0
aF9.6923258879999992
a(lp2793
Vauto
p2794
aVauto
p2795
aF0
aF0
aF0
aF0
aaaaa(lp2796
Vsticky
p2797
a(lp2798
(lp2799
F0
aF0
a(lp2800
Vauto
p2801
aVauto
p2802
aF0
aF0
aF0
aF0
aaaaaaaaa(lp2803
S'ring_finger_fk_ctrl_2_l'
p2804
a(lp2805
(lp2806
Na(lp2807
(lp2808
VtranslateX
p2809
a(lp2810
(lp2811
F0
aF0
a(lp2812
Vauto
p2813
aVauto
p2814
aF0
aF0
aF0
aF0
aaaaa(lp2815
VtranslateY
p2816
a(lp2817
(lp2818
F0
aF0
a(lp2819
Vauto
p2820
aVauto
p2821
aF0
aF0
aF0
aF0
aaaaa(lp2822
VtranslateZ
p2823
a(lp2824
(lp2825
F0
aF0
a(lp2826
Vauto
p2827
aVauto
p2828
aF0
aF0
aF0
aF0
aaaaa(lp2829
VrotateX
p2830
a(lp2831
(lp2832
F0
aF0
a(lp2833
Vauto
p2834
aVauto
p2835
aF0
aF0
aF0
aF0
aaaaa(lp2836
VrotateY
p2837
a(lp2838
(lp2839
F0
aF0
a(lp2840
Vauto
p2841
aVauto
p2842
aF0
aF0
aF0
aF0
aaaaa(lp2843
VrotateZ
p2844
a(lp2845
(lp2846
F0
aF26.540039520000001
a(lp2847
Vauto
p2848
aVauto
p2849
aF0
aF0
aF0
aF0
aaaaaaaaa(lp2850
S'ring_finger_fk_ctrl_2_r'
p2851
a(lp2852
(lp2853
Na(lp2854
(lp2855
VtranslateX
p2856
a(lp2857
(lp2858
F0
aF0
a(lp2859
Vauto
p2860
aVauto
p2861
aF0
aF0
aF0
aF0
aaaaa(lp2862
VtranslateY
p2863
a(lp2864
(lp2865
F0
aF0
a(lp2866
Vauto
p2867
aVauto
p2868
aF0
aF0
aF0
aF0
aaaaa(lp2869
VtranslateZ
p2870
a(lp2871
(lp2872
F0
aF0
a(lp2873
Vauto
p2874
aVauto
p2875
aF0
aF0
aF0
aF0
aaaaa(lp2876
VrotateX
p2877
a(lp2878
(lp2879
F0
aF0
a(lp2880
Vauto
p2881
aVauto
p2882
aF0
aF0
aF0
aF0
aaaaa(lp2883
VrotateY
p2884
a(lp2885
(lp2886
F0
aF0
a(lp2887
Vauto
p2888
aVauto
p2889
aF0
aF0
aF0
aF0
aaaaa(lp2890
VrotateZ
p2891
a(lp2892
(lp2893
F0
aF26.540039520000001
a(lp2894
Vauto
p2895
aVauto
p2896
aF0
aF0
aF0
aF0
aaaaaaaaa(lp2897
S'ring_finger_fk_ctrl_3_l'
p2898
a(lp2899
(lp2900
Na(lp2901
(lp2902
VtranslateX
p2903
a(lp2904
(lp2905
F0
aF0
a(lp2906
Vauto
p2907
aVauto
p2908
aF0
aF0
aF0
aF0
aaaaa(lp2909
VtranslateY
p2910
a(lp2911
(lp2912
F0
aF0
a(lp2913
Vauto
p2914
aVauto
p2915
aF0
aF0
aF0
aF0
aaaaa(lp2916
VtranslateZ
p2917
a(lp2918
(lp2919
F0
aF0
a(lp2920
Vauto
p2921
aVauto
p2922
aF0
aF0
aF0
aF0
aaaaa(lp2923
VrotateX
p2924
a(lp2925
(lp2926
F0
aF0
a(lp2927
Vauto
p2928
aVauto
p2929
aF0
aF0
aF0
aF0
aaaaa(lp2930
VrotateY
p2931
a(lp2932
(lp2933
F0
aF0
a(lp2934
Vauto
p2935
aVauto
p2936
aF0
aF0
aF0
aF0
aaaaa(lp2937
VrotateZ
p2938
a(lp2939
(lp2940
F0
aF9.3836626360000004
a(lp2941
Vauto
p2942
aVauto
p2943
aF0
aF0
aF0
aF0
aaaaaaaaa(lp2944
S'ring_finger_fk_ctrl_3_r'
p2945
a(lp2946
(lp2947
Na(lp2948
(lp2949
VtranslateX
p2950
a(lp2951
(lp2952
F0
aF0
a(lp2953
Vauto
p2954
aVauto
p2955
aF0
aF0
aF0
aF0
aaaaa(lp2956
VtranslateY
p2957
a(lp2958
(lp2959
F0
aF0
a(lp2960
Vauto
p2961
aVauto
p2962
aF0
aF0
aF0
aF0
aaaaa(lp2963
VtranslateZ
p2964
a(lp2965
(lp2966
F0
aF0
a(lp2967
Vauto
p2968
aVauto
p2969
aF0
aF0
aF0
aF0
aaaaa(lp2970
VrotateX
p2971
a(lp2972
(lp2973
F0
aF0
a(lp2974
Vauto
p2975
aVauto
p2976
aF0
aF0
aF0
aF0
aaaaa(lp2977
VrotateY
p2978
a(lp2979
(lp2980
F0
aF0
a(lp2981
Vauto
p2982
aVauto
p2983
aF0
aF0
aF0
aF0
aaaaa(lp2984
VrotateZ
p2985
a(lp2986
(lp2987
F0
aF9.3836626360000004
a(lp2988
Vauto
p2989
aVauto
p2990
aF0
aF0
aF0
aF0
aaaaaaaaa(lp2991
S'middle_metacarpal_ctrl_l'
p2992
a(lp2993
(lp2994
Na(lp2995
(lp2996
VrotateX
p2997
a(lp2998
(lp2999
F0
aF0
a(lp3000
Vauto
p3001
aVauto
p3002
aF0
aF0
aF0
aF0
aaaaa(lp3003
VrotateY
p3004
a(lp3005
(lp3006
F0
aF0
a(lp3007
Vauto
p3008
aVauto
p3009
aF0
aF0
aF0
aF0
aaaaa(lp3010
VrotateZ
p3011
a(lp3012
(lp3013
F0
aF0
a(lp3014
Vauto
p3015
aVauto
p3016
aF0
aF0
aF0
aF0
aaaaaaaaa(lp3017
S'middle_metacarpal_ctrl_r'
p3018
a(lp3019
(lp3020
Na(lp3021
(lp3022
VrotateX
p3023
a(lp3024
(lp3025
F0
aF0
a(lp3026
Vauto
p3027
aVauto
p3028
aF0
aF0
aF0
aF0
aaaaa(lp3029
VrotateY
p3030
a(lp3031
(lp3032
F0
aF0
a(lp3033
Vauto
p3034
aVauto
p3035
aF0
aF0
aF0
aF0
aaaaa(lp3036
VrotateZ
p3037
a(lp3038
(lp3039
F0
aF0
a(lp3040
Vauto
p3041
aVauto
p3042
aF0
aF0
aF0
aF0
aaaaaaaaa(lp3043
S'middle_finger_fk_ctrl_1_l'
p3044
a(lp3045
(lp3046
Na(lp3047
(lp3048
VtranslateX
p3049
a(lp3050
(lp3051
F0
aF0
a(lp3052
Vauto
p3053
aVauto
p3054
aF0
aF0
aF0
aF0
aaaaa(lp3055
VtranslateY
p3056
a(lp3057
(lp3058
F0
aF0
a(lp3059
Vauto
p3060
aVauto
p3061
aF0
aF0
aF0
aF0
aaaaa(lp3062
VtranslateZ
p3063
a(lp3064
(lp3065
F0
aF0
a(lp3066
Vauto
p3067
aVauto
p3068
aF0
aF0
aF0
aF0
aaaaa(lp3069
VrotateX
p3070
a(lp3071
(lp3072
F0
aF0
a(lp3073
Vauto
p3074
aVauto
p3075
aF0
aF0
aF0
aF0
aaaaa(lp3076
VrotateY
p3077
a(lp3078
(lp3079
F0
aF0
a(lp3080
Vauto
p3081
aVauto
p3082
aF0
aF0
aF0
aF0
aaaaa(lp3083
VrotateZ
p3084
a(lp3085
(lp3086
F0
aF1.42494476
a(lp3087
Vauto
p3088
aVauto
p3089
aF0
aF0
aF0
aF0
aaaaa(lp3090
Vsticky
p3091
a(lp3092
(lp3093
F0
aF0
a(lp3094
Vauto
p3095
aVauto
p3096
aF0
aF0
aF0
aF0
aaaaaaaaa(lp3097
S'middle_finger_fk_ctrl_1_r'
p3098
a(lp3099
(lp3100
Na(lp3101
(lp3102
VtranslateX
p3103
a(lp3104
(lp3105
F0
aF0
a(lp3106
Vauto
p3107
aVauto
p3108
aF0
aF0
aF0
aF0
aaaaa(lp3109
VtranslateY
p3110
a(lp3111
(lp3112
F0
aF0
a(lp3113
Vauto
p3114
aVauto
p3115
aF0
aF0
aF0
aF0
aaaaa(lp3116
VtranslateZ
p3117
a(lp3118
(lp3119
F0
aF0
a(lp3120
Vauto
p3121
aVauto
p3122
aF0
aF0
aF0
aF0
aaaaa(lp3123
VrotateX
p3124
a(lp3125
(lp3126
F0
aF0
a(lp3127
Vauto
p3128
aVauto
p3129
aF0
aF0
aF0
aF0
aaaaa(lp3130
VrotateY
p3131
a(lp3132
(lp3133
F0
aF0
a(lp3134
Vauto
p3135
aVauto
p3136
aF0
aF0
aF0
aF0
aaaaa(lp3137
VrotateZ
p3138
a(lp3139
(lp3140
F0
aF1.42494476
a(lp3141
Vauto
p3142
aVauto
p3143
aF0
aF0
aF0
aF0
aaaaa(lp3144
Vsticky
p3145
a(lp3146
(lp3147
F0
aF0
a(lp3148
Vauto
p3149
aVauto
p3150
aF0
aF0
aF0
aF0
aaaaaaaaa(lp3151
S'middle_finger_fk_ctrl_2_l'
p3152
a(lp3153
(lp3154
Na(lp3155
(lp3156
VtranslateX
p3157
a(lp3158
(lp3159
F0
aF0
a(lp3160
Vauto
p3161
aVauto
p3162
aF0
aF0
aF0
aF0
aaaaa(lp3163
VtranslateY
p3164
a(lp3165
(lp3166
F0
aF0
a(lp3167
Vauto
p3168
aVauto
p3169
aF0
aF0
aF0
aF0
aaaaa(lp3170
VtranslateZ
p3171
a(lp3172
(lp3173
F0
aF0
a(lp3174
Vauto
p3175
aVauto
p3176
aF0
aF0
aF0
aF0
aaaaa(lp3177
VrotateX
p3178
a(lp3179
(lp3180
F0
aF0
a(lp3181
Vauto
p3182
aVauto
p3183
aF0
aF0
aF0
aF0
aaaaa(lp3184
VrotateY
p3185
a(lp3186
(lp3187
F0
aF0
a(lp3188
Vauto
p3189
aVauto
p3190
aF0
aF0
aF0
aF0
aaaaa(lp3191
VrotateZ
p3192
a(lp3193
(lp3194
F0
aF13.07013151
a(lp3195
Vauto
p3196
aVauto
p3197
aF0
aF0
aF0
aF0
aaaaaaaaa(lp3198
S'middle_finger_fk_ctrl_2_r'
p3199
a(lp3200
(lp3201
Na(lp3202
(lp3203
VtranslateX
p3204
a(lp3205
(lp3206
F0
aF0
a(lp3207
Vauto
p3208
aVauto
p3209
aF0
aF0
aF0
aF0
aaaaa(lp3210
VtranslateY
p3211
a(lp3212
(lp3213
F0
aF0
a(lp3214
Vauto
p3215
aVauto
p3216
aF0
aF0
aF0
aF0
aaaaa(lp3217
VtranslateZ
p3218
a(lp3219
(lp3220
F0
aF0
a(lp3221
Vauto
p3222
aVauto
p3223
aF0
aF0
aF0
aF0
aaaaa(lp3224
VrotateX
p3225
a(lp3226
(lp3227
F0
aF0
a(lp3228
Vauto
p3229
aVauto
p3230
aF0
aF0
aF0
aF0
aaaaa(lp3231
VrotateY
p3232
a(lp3233
(lp3234
F0
aF0
a(lp3235
Vauto
p3236
aVauto
p3237
aF0
aF0
aF0
aF0
aaaaa(lp3238
VrotateZ
p3239
a(lp3240
(lp3241
F0
aF13.07013151
a(lp3242
Vauto
p3243
aVauto
p3244
aF0
aF0
aF0
aF0
aaaaaaaaa(lp3245
S'middle_finger_fk_ctrl_3_l'
p3246
a(lp3247
(lp3248
Na(lp3249
(lp3250
VtranslateX
p3251
a(lp3252
(lp3253
F0
aF0
a(lp3254
Vauto
p3255
aVauto
p3256
aF0
aF0
aF0
aF0
aaaaa(lp3257
VtranslateY
p3258
a(lp3259
(lp3260
F0
aF0
a(lp3261
Vauto
p3262
aVauto
p3263
aF0
aF0
aF0
aF0
aaaaa(lp3264
VtranslateZ
p3265
a(lp3266
(lp3267
F0
aF0
a(lp3268
Vauto
p3269
aVauto
p3270
aF0
aF0
aF0
aF0
aaaaa(lp3271
VrotateX
p3272
a(lp3273
(lp3274
F0
aF0
a(lp3275
Vauto
p3276
aVauto
p3277
aF0
aF0
aF0
aF0
aaaaa(lp3278
VrotateY
p3279
a(lp3280
(lp3281
F0
aF0
a(lp3282
Vauto
p3283
aVauto
p3284
aF0
aF0
aF0
aF0
aaaaa(lp3285
VrotateZ
p3286
a(lp3287
(lp3288
F0
aF11.9622385
a(lp3289
Vauto
p3290
aVauto
p3291
aF0
aF0
aF0
aF0
aaaaaaaaa(lp3292
S'middle_finger_fk_ctrl_3_r'
p3293
a(lp3294
(lp3295
Na(lp3296
(lp3297
VtranslateX
p3298
a(lp3299
(lp3300
F0
aF0
a(lp3301
Vauto
p3302
aVauto
p3303
aF0
aF0
aF0
aF0
aaaaa(lp3304
VtranslateY
p3305
a(lp3306
(lp3307
F0
aF0
a(lp3308
Vauto
p3309
aVauto
p3310
aF0
aF0
aF0
aF0
aaaaa(lp3311
VtranslateZ
p3312
a(lp3313
(lp3314
F0
aF0
a(lp3315
Vauto
p3316
aVauto
p3317
aF0
aF0
aF0
aF0
aaaaa(lp3318
VrotateX
p3319
a(lp3320
(lp3321
F0
aF0
a(lp3322
Vauto
p3323
aVauto
p3324
aF0
aF0
aF0
aF0
aaaaa(lp3325
VrotateY
p3326
a(lp3327
(lp3328
F0
aF0
a(lp3329
Vauto
p3330
aVauto
p3331
aF0
aF0
aF0
aF0
aaaaa(lp3332
VrotateZ
p3333
a(lp3334
(lp3335
F0
aF11.9622385
a(lp3336
Vauto
p3337
aVauto
p3338
aF0
aF0
aF0
aF0
aaaaaaaaa(lp3339
S'index_metacarpal_ctrl_l'
p3340
a(lp3341
(lp3342
Na(lp3343
(lp3344
VrotateX
p3345
a(lp3346
(lp3347
F0
aF0
a(lp3348
Vauto
p3349
aVauto
p3350
aF0
aF0
aF0
aF0
aaaaa(lp3351
VrotateY
p3352
a(lp3353
(lp3354
F0
aF-0.39898574399999998
a(lp3355
Vauto
p3356
aVauto
p3357
aF0
aF0
aF0
aF0
aaaaa(lp3358
VrotateZ
p3359
a(lp3360
(lp3361
F0
aF0
a(lp3362
Vauto
p3363
aVauto
p3364
aF0
aF0
aF0
aF0
aaaaaaaaa(lp3365
S'index_metacarpal_ctrl_r'
p3366
a(lp3367
(lp3368
Na(lp3369
(lp3370
VrotateX
p3371
a(lp3372
(lp3373
F0
aF0
a(lp3374
Vauto
p3375
aVauto
p3376
aF0
aF0
aF0
aF0
aaaaa(lp3377
VrotateY
p3378
a(lp3379
(lp3380
F0
aF-0.39898574399999998
a(lp3381
Vauto
p3382
aVauto
p3383
aF0
aF0
aF0
aF0
aaaaa(lp3384
VrotateZ
p3385
a(lp3386
(lp3387
F0
aF0
a(lp3388
Vauto
p3389
aVauto
p3390
aF0
aF0
aF0
aF0
aaaaaaaaa(lp3391
S'index_finger_fk_ctrl_1_l'
p3392
a(lp3393
(lp3394
Na(lp3395
(lp3396
VtranslateX
p3397
a(lp3398
(lp3399
F0
aF0
a(lp3400
Vauto
p3401
aVauto
p3402
aF0
aF0
aF0
aF0
aaaaa(lp3403
VtranslateY
p3404
a(lp3405
(lp3406
F0
aF0
a(lp3407
Vauto
p3408
aVauto
p3409
aF0
aF0
aF0
aF0
aaaaa(lp3410
VtranslateZ
p3411
a(lp3412
(lp3413
F0
aF0
a(lp3414
Vauto
p3415
aVauto
p3416
aF0
aF0
aF0
aF0
aaaaa(lp3417
VrotateX
p3418
a(lp3419
(lp3420
F0
aF0
a(lp3421
Vauto
p3422
aVauto
p3423
aF0
aF0
aF0
aF0
aaaaa(lp3424
VrotateY
p3425
a(lp3426
(lp3427
F0
aF0
a(lp3428
Vauto
p3429
aVauto
p3430
aF0
aF0
aF0
aF0
aaaaa(lp3431
VrotateZ
p3432
a(lp3433
(lp3434
F0
aF2.6785281520000002
a(lp3435
Vauto
p3436
aVauto
p3437
aF0
aF0
aF0
aF0
aaaaa(lp3438
Vsticky
p3439
a(lp3440
(lp3441
F0
aF0
a(lp3442
Vauto
p3443
aVauto
p3444
aF0
aF0
aF0
aF0
aaaaaaaaa(lp3445
S'index_finger_fk_ctrl_1_r'
p3446
a(lp3447
(lp3448
Na(lp3449
(lp3450
VtranslateX
p3451
a(lp3452
(lp3453
F0
aF0
a(lp3454
Vauto
p3455
aVauto
p3456
aF0
aF0
aF0
aF0
aaaaa(lp3457
VtranslateY
p3458
a(lp3459
(lp3460
F0
aF0
a(lp3461
Vauto
p3462
aVauto
p3463
aF0
aF0
aF0
aF0
aaaaa(lp3464
VtranslateZ
p3465
a(lp3466
(lp3467
F0
aF0
a(lp3468
Vauto
p3469
aVauto
p3470
aF0
aF0
aF0
aF0
aaaaa(lp3471
VrotateX
p3472
a(lp3473
(lp3474
F0
aF0
a(lp3475
Vauto
p3476
aVauto
p3477
aF0
aF0
aF0
aF0
aaaaa(lp3478
VrotateY
p3479
a(lp3480
(lp3481
F0
aF0
a(lp3482
Vauto
p3483
aVauto
p3484
aF0
aF0
aF0
aF0
aaaaa(lp3485
VrotateZ
p3486
a(lp3487
(lp3488
F0
aF2.6785281520000002
a(lp3489
Vauto
p3490
aVauto
p3491
aF0
aF0
aF0
aF0
aaaaa(lp3492
Vsticky
p3493
a(lp3494
(lp3495
F0
aF0
a(lp3496
Vauto
p3497
aVauto
p3498
aF0
aF0
aF0
aF0
aaaaaaaaa(lp3499
S'index_finger_fk_ctrl_2_l'
p3500
a(lp3501
(lp3502
Na(lp3503
(lp3504
VtranslateX
p3505
a(lp3506
(lp3507
F0
aF0
a(lp3508
Vauto
p3509
aVauto
p3510
aF0
aF0
aF0
aF0
aaaaa(lp3511
VtranslateY
p3512
a(lp3513
(lp3514
F0
aF0
a(lp3515
Vauto
p3516
aVauto
p3517
aF0
aF0
aF0
aF0
aaaaa(lp3518
VtranslateZ
p3519
a(lp3520
(lp3521
F0
aF0
a(lp3522
Vauto
p3523
aVauto
p3524
aF0
aF0
aF0
aF0
aaaaa(lp3525
VrotateX
p3526
a(lp3527
(lp3528
F0
aF0
a(lp3529
Vauto
p3530
aVauto
p3531
aF0
aF0
aF0
aF0
aaaaa(lp3532
VrotateY
p3533
a(lp3534
(lp3535
F0
aF0
a(lp3536
Vauto
p3537
aVauto
p3538
aF0
aF0
aF0
aF0
aaaaa(lp3539
VrotateZ
p3540
a(lp3541
(lp3542
F0
aF6.3826249629999996
a(lp3543
Vauto
p3544
aVauto
p3545
aF0
aF0
aF0
aF0
aaaaaaaaa(lp3546
S'index_finger_fk_ctrl_2_r'
p3547
a(lp3548
(lp3549
Na(lp3550
(lp3551
VtranslateX
p3552
a(lp3553
(lp3554
F0
aF0
a(lp3555
Vauto
p3556
aVauto
p3557
aF0
aF0
aF0
aF0
aaaaa(lp3558
VtranslateY
p3559
a(lp3560
(lp3561
F0
aF0
a(lp3562
Vauto
p3563
aVauto
p3564
aF0
aF0
aF0
aF0
aaaaa(lp3565
VtranslateZ
p3566
a(lp3567
(lp3568
F0
aF0
a(lp3569
Vauto
p3570
aVauto
p3571
aF0
aF0
aF0
aF0
aaaaa(lp3572
VrotateX
p3573
a(lp3574
(lp3575
F0
aF0
a(lp3576
Vauto
p3577
aVauto
p3578
aF0
aF0
aF0
aF0
aaaaa(lp3579
VrotateY
p3580
a(lp3581
(lp3582
F0
aF0
a(lp3583
Vauto
p3584
aVauto
p3585
aF0
aF0
aF0
aF0
aaaaa(lp3586
VrotateZ
p3587
a(lp3588
(lp3589
F0
aF6.3826249629999996
a(lp3590
Vauto
p3591
aVauto
p3592
aF0
aF0
aF0
aF0
aaaaaaaaa(lp3593
S'index_finger_fk_ctrl_3_l'
p3594
a(lp3595
(lp3596
Na(lp3597
(lp3598
VtranslateX
p3599
a(lp3600
(lp3601
F0
aF0
a(lp3602
Vauto
p3603
aVauto
p3604
aF0
aF0
aF0
aF0
aaaaa(lp3605
VtranslateY
p3606
a(lp3607
(lp3608
F0
aF0
a(lp3609
Vauto
p3610
aVauto
p3611
aF0
aF0
aF0
aF0
aaaaa(lp3612
VtranslateZ
p3613
a(lp3614
(lp3615
F0
aF0
a(lp3616
Vauto
p3617
aVauto
p3618
aF0
aF0
aF0
aF0
aaaaa(lp3619
VrotateX
p3620
a(lp3621
(lp3622
F0
aF0
a(lp3623
Vauto
p3624
aVauto
p3625
aF0
aF0
aF0
aF0
aaaaa(lp3626
VrotateY
p3627
a(lp3628
(lp3629
F0
aF0
a(lp3630
Vauto
p3631
aVauto
p3632
aF0
aF0
aF0
aF0
aaaaa(lp3633
VrotateZ
p3634
a(lp3635
(lp3636
F0
aF3.7672390280000001
a(lp3637
Vauto
p3638
aVauto
p3639
aF0
aF0
aF0
aF0
aaaaaaaaa(lp3640
S'index_finger_fk_ctrl_3_r'
p3641
a(lp3642
(lp3643
Na(lp3644
(lp3645
VtranslateX
p3646
a(lp3647
(lp3648
F0
aF0
a(lp3649
Vauto
p3650
aVauto
p3651
aF0
aF0
aF0
aF0
aaaaa(lp3652
VtranslateY
p3653
a(lp3654
(lp3655
F0
aF0
a(lp3656
Vauto
p3657
aVauto
p3658
aF0
aF0
aF0
aF0
aaaaa(lp3659
VtranslateZ
p3660
a(lp3661
(lp3662
F0
aF0
a(lp3663
Vauto
p3664
aVauto
p3665
aF0
aF0
aF0
aF0
aaaaa(lp3666
VrotateX
p3667
a(lp3668
(lp3669
F0
aF0
a(lp3670
Vauto
p3671
aVauto
p3672
aF0
aF0
aF0
aF0
aaaaa(lp3673
VrotateY
p3674
a(lp3675
(lp3676
F0
aF0
a(lp3677
Vauto
p3678
aVauto
p3679
aF0
aF0
aF0
aF0
aaaaa(lp3680
VrotateZ
p3681
a(lp3682
(lp3683
F0
aF3.7672390280000001
a(lp3684
Vauto
p3685
aVauto
p3686
aF0
aF0
aF0
aF0
aaaaaaaaa(lp3687
S'thumb_finger_fk_ctrl_1_l'
p3688
a(lp3689
(lp3690
Na(lp3691
(lp3692
VtranslateX
p3693
a(lp3694
(lp3695
F0
aF0
a(lp3696
Vauto
p3697
aVauto
p3698
aF0
aF0
aF0
aF0
aaaaa(lp3699
VtranslateY
p3700
a(lp3701
(lp3702
F0
aF0
a(lp3703
Vauto
p3704
aVauto
p3705
aF0
aF0
aF0
aF0
aaaaa(lp3706
VtranslateZ
p3707
a(lp3708
(lp3709
F0
aF0
a(lp3710
Vauto
p3711
aVauto
p3712
aF0
aF0
aF0
aF0
aaaaa(lp3713
VrotateX
p3714
a(lp3715
(lp3716
F0
aF-6.7669023025744526
a(lp3717
Vauto
p3718
aVauto
p3719
aF0
aF0
aF0
aF0
aaaaa(lp3720
VrotateY
p3721
a(lp3722
(lp3723
F0
aF-16.43818444420182
a(lp3724
Vauto
p3725
aVauto
p3726
aF0
aF0
aF0
aF0
aaaaa(lp3727
VrotateZ
p3728
a(lp3729
(lp3730
F0
aF6.315208670121975
a(lp3731
Vauto
p3732
aVauto
p3733
aF0
aF0
aF0
aF0
aaaaa(lp3734
Vsticky
p3735
a(lp3736
(lp3737
F0
aF0
a(lp3738
Vauto
p3739
aVauto
p3740
aF0
aF0
aF0
aF0
aaaaaaaaa(lp3741
S'thumb_finger_fk_ctrl_1_r'
p3742
a(lp3743
(lp3744
Na(lp3745
(lp3746
VtranslateX
p3747
a(lp3748
(lp3749
F0
aF0
a(lp3750
Vauto
p3751
aVauto
p3752
aF0
aF0
aF0
aF0
aaaaa(lp3753
VtranslateY
p3754
a(lp3755
(lp3756
F0
aF0
a(lp3757
Vauto
p3758
aVauto
p3759
aF0
aF0
aF0
aF0
aaaaa(lp3760
VtranslateZ
p3761
a(lp3762
(lp3763
F0
aF0
a(lp3764
Vauto
p3765
aVauto
p3766
aF0
aF0
aF0
aF0
aaaaa(lp3767
VrotateX
p3768
a(lp3769
(lp3770
F0
aF-6.7669023025744526
a(lp3771
Vauto
p3772
aVauto
p3773
aF0
aF0
aF0
aF0
aaaaa(lp3774
VrotateY
p3775
a(lp3776
(lp3777
F0
aF-16.43818444420182
a(lp3778
Vauto
p3779
aVauto
p3780
aF0
aF0
aF0
aF0
aaaaa(lp3781
VrotateZ
p3782
a(lp3783
(lp3784
F0
aF6.315208670121975
a(lp3785
Vauto
p3786
aVauto
p3787
aF0
aF0
aF0
aF0
aaaaa(lp3788
Vsticky
p3789
a(lp3790
(lp3791
F0
aF0
a(lp3792
Vauto
p3793
aVauto
p3794
aF0
aF0
aF0
aF0
aaaaaaaaa(lp3795
S'thumb_finger_fk_ctrl_2_l'
p3796
a(lp3797
(lp3798
Na(lp3799
(lp3800
VtranslateX
p3801
a(lp3802
(lp3803
F0
aF0
a(lp3804
Vauto
p3805
aVauto
p3806
aF0
aF0
aF0
aF0
aaaaa(lp3807
VtranslateY
p3808
a(lp3809
(lp3810
F0
aF0
a(lp3811
Vauto
p3812
aVauto
p3813
aF0
aF0
aF0
aF0
aaaaa(lp3814
VtranslateZ
p3815
a(lp3816
(lp3817
F0
aF0
a(lp3818
Vauto
p3819
aVauto
p3820
aF0
aF0
aF0
aF0
aaaaa(lp3821
VrotateX
p3822
a(lp3823
(lp3824
F0
aF0
a(lp3825
Vauto
p3826
aVauto
p3827
aF0
aF0
aF0
aF0
aaaaa(lp3828
VrotateY
p3829
a(lp3830
(lp3831
F0
aF0
a(lp3832
Vauto
p3833
aVauto
p3834
aF0
aF0
aF0
aF0
aaaaa(lp3835
VrotateZ
p3836
a(lp3837
(lp3838
F0
aF17.574516350404419
a(lp3839
Vauto
p3840
aVauto
p3841
aF0
aF0
aF0
aF0
aaaaaaaaa(lp3842
S'thumb_finger_fk_ctrl_2_r'
p3843
a(lp3844
(lp3845
Na(lp3846
(lp3847
VtranslateX
p3848
a(lp3849
(lp3850
F0
aF0
a(lp3851
Vauto
p3852
aVauto
p3853
aF0
aF0
aF0
aF0
aaaaa(lp3854
VtranslateY
p3855
a(lp3856
(lp3857
F0
aF0
a(lp3858
Vauto
p3859
aVauto
p3860
aF0
aF0
aF0
aF0
aaaaa(lp3861
VtranslateZ
p3862
a(lp3863
(lp3864
F0
aF0
a(lp3865
Vauto
p3866
aVauto
p3867
aF0
aF0
aF0
aF0
aaaaa(lp3868
VrotateX
p3869
a(lp3870
(lp3871
F0
aF0
a(lp3872
Vauto
p3873
aVauto
p3874
aF0
aF0
aF0
aF0
aaaaa(lp3875
VrotateY
p3876
a(lp3877
(lp3878
F0
aF0
a(lp3879
Vauto
p3880
aVauto
p3881
aF0
aF0
aF0
aF0
aaaaa(lp3882
VrotateZ
p3883
a(lp3884
(lp3885
F0
aF17.574516350404419
a(lp3886
Vauto
p3887
aVauto
p3888
aF0
aF0
aF0
aF0
aaaaaaaaa(lp3889
S'thumb_finger_fk_ctrl_3_l'
p3890
a(lp3891
(lp3892
Na(lp3893
(lp3894
VtranslateX
p3895
a(lp3896
(lp3897
F0
aF0
a(lp3898
Vauto
p3899
aVauto
p3900
aF0
aF0
aF0
aF0
aaaaa(lp3901
VtranslateY
p3902
a(lp3903
(lp3904
F0
aF0
a(lp3905
Vauto
p3906
aVauto
p3907
aF0
aF0
aF0
aF0
aaaaa(lp3908
VtranslateZ
p3909
a(lp3910
(lp3911
F0
aF0
a(lp3912
Vauto
p3913
aVauto
p3914
aF0
aF0
aF0
aF0
aaaaa(lp3915
VrotateX
p3916
a(lp3917
(lp3918
F0
aF0
a(lp3919
Vauto
p3920
aVauto
p3921
aF0
aF0
aF0
aF0
aaaaa(lp3922
VrotateY
p3923
a(lp3924
(lp3925
F0
aF0
a(lp3926
Vauto
p3927
aVauto
p3928
aF0
aF0
aF0
aF0
aaaaa(lp3929
VrotateZ
p3930
a(lp3931
(lp3932
F0
aF4.7566897911614712
a(lp3933
Vauto
p3934
aVauto
p3935
aF0
aF0
aF0
aF0
aaaaaaaaa(lp3936
S'thumb_finger_fk_ctrl_3_r'
p3937
a(lp3938
(lp3939
Na(lp3940
(lp3941
VtranslateX
p3942
a(lp3943
(lp3944
F0
aF0
a(lp3945
Vauto
p3946
aVauto
p3947
aF0
aF0
aF0
aF0
aaaaa(lp3948
VtranslateY
p3949
a(lp3950
(lp3951
F0
aF0
a(lp3952
Vauto
p3953
aVauto
p3954
aF0
aF0
aF0
aF0
aaaaa(lp3955
VtranslateZ
p3956
a(lp3957
(lp3958
F0
aF0
a(lp3959
Vauto
p3960
aVauto
p3961
aF0
aF0
aF0
aF0
aaaaa(lp3962
VrotateX
p3963
a(lp3964
(lp3965
F0
aF0
a(lp3966
Vauto
p3967
aVauto
p3968
aF0
aF0
aF0
aF0
aaaaa(lp3969
VrotateY
p3970
a(lp3971
(lp3972
F0
aF0
a(lp3973
Vauto
p3974
aVauto
p3975
aF0
aF0
aF0
aF0
aaaaa(lp3976
VrotateZ
p3977
a(lp3978
(lp3979
F0
aF4.7566897911614712
a(lp3980
Vauto
p3981
aVauto
p3982
aF0
aF0
aF0
aF0
aaaaaaaaa(lp3983
S'index_l_ik_anim'
p3984
a(lp3985
(lp3986
Na(lp3987
(lp3988
VtranslateX
p3989
a(lp3990
(lp3991
F0
aF0
a(lp3992
Vauto
p3993
aVauto
p3994
aF0
aF0
aF0
aF0
aaaaa(lp3995
VtranslateY
p3996
a(lp3997
(lp3998
F0
aF0
a(lp3999
Vauto
p4000
aVauto
p4001
aF0
aF0
aF0
aF0
aaaaa(lp4002
VtranslateZ
p4003
a(lp4004
(lp4005
F0
aF0
a(lp4006
Vauto
p4007
aVauto
p4008
aF0
aF0
aF0
aF0
aaaaa(lp4009
VrotateX
p4010
a(lp4011
(lp4012
F0
aF0
a(lp4013
Vauto
p4014
aVauto
p4015
aF0
aF0
aF0
aF0
aaaaa(lp4016
VrotateY
p4017
a(lp4018
(lp4019
F0
aF0
a(lp4020
Vauto
p4021
aVauto
p4022
aF0
aF0
aF0
aF0
aaaaa(lp4023
VrotateZ
p4024
a(lp4025
(lp4026
F0
aF0
a(lp4027
Vauto
p4028
aVauto
p4029
aF0
aF0
aF0
aF0
aaaaa(lp4030
VpoleVectorVis
p4031
a(lp4032
(lp4033
F0
aF0
a(lp4034
Vauto
p4035
aVauto
p4036
aF0
aF0
aF0
aF0
aaaaaaaaa(lp4037
S'index_r_ik_anim'
p4038
a(lp4039
(lp4040
Na(lp4041
(lp4042
VtranslateX
p4043
a(lp4044
(lp4045
F0
aF0
a(lp4046
Vauto
p4047
aVauto
p4048
aF0
aF0
aF0
aF0
aaaaa(lp4049
VtranslateY
p4050
a(lp4051
(lp4052
F0
aF0
a(lp4053
Vauto
p4054
aVauto
p4055
aF0
aF0
aF0
aF0
aaaaa(lp4056
VtranslateZ
p4057
a(lp4058
(lp4059
F0
aF0
a(lp4060
Vauto
p4061
aVauto
p4062
aF0
aF0
aF0
aF0
aaaaa(lp4063
VrotateX
p4064
a(lp4065
(lp4066
F0
aF0
a(lp4067
Vauto
p4068
aVauto
p4069
aF0
aF0
aF0
aF0
aaaaa(lp4070
VrotateY
p4071
a(lp4072
(lp4073
F0
aF0
a(lp4074
Vauto
p4075
aVauto
p4076
aF0
aF0
aF0
aF0
aaaaa(lp4077
VrotateZ
p4078
a(lp4079
(lp4080
F0
aF0
a(lp4081
Vauto
p4082
aVauto
p4083
aF0
aF0
aF0
aF0
aaaaa(lp4084
VpoleVectorVis
p4085
a(lp4086
(lp4087
F0
aF0
a(lp4088
Vauto
p4089
aVauto
p4090
aF0
aF0
aF0
aF0
aaaaaaaaa(lp4091
S'middle_l_ik_anim'
p4092
a(lp4093
(lp4094
Na(lp4095
(lp4096
VtranslateX
p4097
a(lp4098
(lp4099
F0
aF0
a(lp4100
Vauto
p4101
aVauto
p4102
aF0
aF0
aF0
aF0
aaaaa(lp4103
VtranslateY
p4104
a(lp4105
(lp4106
F0
aF0
a(lp4107
Vauto
p4108
aVauto
p4109
aF0
aF0
aF0
aF0
aaaaa(lp4110
VtranslateZ
p4111
a(lp4112
(lp4113
F0
aF0
a(lp4114
Vauto
p4115
aVauto
p4116
aF0
aF0
aF0
aF0
aaaaa(lp4117
VrotateX
p4118
a(lp4119
(lp4120
F0
aF0
a(lp4121
Vauto
p4122
aVauto
p4123
aF0
aF0
aF0
aF0
aaaaa(lp4124
VrotateY
p4125
a(lp4126
(lp4127
F0
aF0
a(lp4128
Vauto
p4129
aVauto
p4130
aF0
aF0
aF0
aF0
aaaaa(lp4131
VrotateZ
p4132
a(lp4133
(lp4134
F0
aF0
a(lp4135
Vauto
p4136
aVauto
p4137
aF0
aF0
aF0
aF0
aaaaa(lp4138
VpoleVectorVis
p4139
a(lp4140
(lp4141
F0
aF0
a(lp4142
Vauto
p4143
aVauto
p4144
aF0
aF0
aF0
aF0
aaaaaaaaa(lp4145
S'middle_r_ik_anim'
p4146
a(lp4147
(lp4148
Na(lp4149
(lp4150
VtranslateX
p4151
a(lp4152
(lp4153
F0
aF0
a(lp4154
Vauto
p4155
aVauto
p4156
aF0
aF0
aF0
aF0
aaaaa(lp4157
VtranslateY
p4158
a(lp4159
(lp4160
F0
aF0
a(lp4161
Vauto
p4162
aVauto
p4163
aF0
aF0
aF0
aF0
aaaaa(lp4164
VtranslateZ
p4165
a(lp4166
(lp4167
F0
aF0
a(lp4168
Vauto
p4169
aVauto
p4170
aF0
aF0
aF0
aF0
aaaaa(lp4171
VrotateX
p4172
a(lp4173
(lp4174
F0
aF0
a(lp4175
Vauto
p4176
aVauto
p4177
aF0
aF0
aF0
aF0
aaaaa(lp4178
VrotateY
p4179
a(lp4180
(lp4181
F0
aF0
a(lp4182
Vauto
p4183
aVauto
p4184
aF0
aF0
aF0
aF0
aaaaa(lp4185
VrotateZ
p4186
a(lp4187
(lp4188
F0
aF0
a(lp4189
Vauto
p4190
aVauto
p4191
aF0
aF0
aF0
aF0
aaaaa(lp4192
VpoleVectorVis
p4193
a(lp4194
(lp4195
F0
aF0
a(lp4196
Vauto
p4197
aVauto
p4198
aF0
aF0
aF0
aF0
aaaaaaaaa(lp4199
S'ring_l_ik_anim'
p4200
a(lp4201
(lp4202
Na(lp4203
(lp4204
VtranslateX
p4205
a(lp4206
(lp4207
F0
aF0
a(lp4208
Vauto
p4209
aVauto
p4210
aF0
aF0
aF0
aF0
aaaaa(lp4211
VtranslateY
p4212
a(lp4213
(lp4214
F0
aF0
a(lp4215
Vauto
p4216
aVauto
p4217
aF0
aF0
aF0
aF0
aaaaa(lp4218
VtranslateZ
p4219
a(lp4220
(lp4221
F0
aF0
a(lp4222
Vauto
p4223
aVauto
p4224
aF0
aF0
aF0
aF0
aaaaa(lp4225
VrotateX
p4226
a(lp4227
(lp4228
F0
aF0
a(lp4229
Vauto
p4230
aVauto
p4231
aF0
aF0
aF0
aF0
aaaaa(lp4232
VrotateY
p4233
a(lp4234
(lp4235
F0
aF0
a(lp4236
Vauto
p4237
aVauto
p4238
aF0
aF0
aF0
aF0
aaaaa(lp4239
VrotateZ
p4240
a(lp4241
(lp4242
F0
aF0
a(lp4243
Vauto
p4244
aVauto
p4245
aF0
aF0
aF0
aF0
aaaaa(lp4246
VpoleVectorVis
p4247
a(lp4248
(lp4249
F0
aF0
a(lp4250
Vauto
p4251
aVauto
p4252
aF0
aF0
aF0
aF0
aaaaaaaaa(lp4253
S'ring_r_ik_anim'
p4254
a(lp4255
(lp4256
Na(lp4257
(lp4258
VtranslateX
p4259
a(lp4260
(lp4261
F0
aF0
a(lp4262
Vauto
p4263
aVauto
p4264
aF0
aF0
aF0
aF0
aaaaa(lp4265
VtranslateY
p4266
a(lp4267
(lp4268
F0
aF0
a(lp4269
Vauto
p4270
aVauto
p4271
aF0
aF0
aF0
aF0
aaaaa(lp4272
VtranslateZ
p4273
a(lp4274
(lp4275
F0
aF0
a(lp4276
Vauto
p4277
aVauto
p4278
aF0
aF0
aF0
aF0
aaaaa(lp4279
VrotateX
p4280
a(lp4281
(lp4282
F0
aF0
a(lp4283
Vauto
p4284
aVauto
p4285
aF0
aF0
aF0
aF0
aaaaa(lp4286
VrotateY
p4287
a(lp4288
(lp4289
F0
aF0
a(lp4290
Vauto
p4291
aVauto
p4292
aF0
aF0
aF0
aF0
aaaaa(lp4293
VrotateZ
p4294
a(lp4295
(lp4296
F0
aF0
a(lp4297
Vauto
p4298
aVauto
p4299
aF0
aF0
aF0
aF0
aaaaa(lp4300
VpoleVectorVis
p4301
a(lp4302
(lp4303
F0
aF0
a(lp4304
Vauto
p4305
aVauto
p4306
aF0
aF0
aF0
aF0
aaaaaaaaa(lp4307
S'pinky_l_ik_anim'
p4308
a(lp4309
(lp4310
Na(lp4311
(lp4312
VtranslateX
p4313
a(lp4314
(lp4315
F0
aF0
a(lp4316
Vauto
p4317
aVauto
p4318
aF0
aF0
aF0
aF0
aaaaa(lp4319
VtranslateY
p4320
a(lp4321
(lp4322
F0
aF0
a(lp4323
Vauto
p4324
aVauto
p4325
aF0
aF0
aF0
aF0
aaaaa(lp4326
VtranslateZ
p4327
a(lp4328
(lp4329
F0
aF0
a(lp4330
Vauto
p4331
aVauto
p4332
aF0
aF0
aF0
aF0
aaaaa(lp4333
VrotateX
p4334
a(lp4335
(lp4336
F0
aF0
a(lp4337
Vauto
p4338
aVauto
p4339
aF0
aF0
aF0
aF0
aaaaa(lp4340
VrotateY
p4341
a(lp4342
(lp4343
F0
aF0
a(lp4344
Vauto
p4345
aVauto
p4346
aF0
aF0
aF0
aF0
aaaaa(lp4347
VrotateZ
p4348
a(lp4349
(lp4350
F0
aF0
a(lp4351
Vauto
p4352
aVauto
p4353
aF0
aF0
aF0
aF0
aaaaa(lp4354
VpoleVectorVis
p4355
a(lp4356
(lp4357
F0
aF0
a(lp4358
Vauto
p4359
aVauto
p4360
aF0
aF0
aF0
aF0
aaaaaaaaa(lp4361
S'pinky_r_ik_anim'
p4362
a(lp4363
(lp4364
Na(lp4365
(lp4366
VtranslateX
p4367
a(lp4368
(lp4369
F0
aF0
a(lp4370
Vauto
p4371
aVauto
p4372
aF0
aF0
aF0
aF0
aaaaa(lp4373
VtranslateY
p4374
a(lp4375
(lp4376
F0
aF0
a(lp4377
Vauto
p4378
aVauto
p4379
aF0
aF0
aF0
aF0
aaaaa(lp4380
VtranslateZ
p4381
a(lp4382
(lp4383
F0
aF0
a(lp4384
Vauto
p4385
aVauto
p4386
aF0
aF0
aF0
aF0
aaaaa(lp4387
VrotateX
p4388
a(lp4389
(lp4390
F0
aF0
a(lp4391
Vauto
p4392
aVauto
p4393
aF0
aF0
aF0
aF0
aaaaa(lp4394
VrotateY
p4395
a(lp4396
(lp4397
F0
aF0
a(lp4398
Vauto
p4399
aVauto
p4400
aF0
aF0
aF0
aF0
aaaaa(lp4401
VrotateZ
p4402
a(lp4403
(lp4404
F0
aF0
a(lp4405
Vauto
p4406
aVauto
p4407
aF0
aF0
aF0
aF0
aaaaa(lp4408
VpoleVectorVis
p4409
a(lp4410
(lp4411
F0
aF0
a(lp4412
Vauto
p4413
aVauto
p4414
aF0
aF0
aF0
aF0
aaaaaaaaa(lp4415
S'thumb_l_ik_anim'
p4416
a(lp4417
(lp4418
Na(lp4419
(lp4420
VtranslateX
p4421
a(lp4422
(lp4423
F0
aF0
a(lp4424
Vauto
p4425
aVauto
p4426
aF0
aF0
aF0
aF0
aaaaa(lp4427
VtranslateY
p4428
a(lp4429
(lp4430
F0
aF0
a(lp4431
Vauto
p4432
aVauto
p4433
aF0
aF0
aF0
aF0
aaaaa(lp4434
VtranslateZ
p4435
a(lp4436
(lp4437
F0
aF0
a(lp4438
Vauto
p4439
aVauto
p4440
aF0
aF0
aF0
aF0
aaaaa(lp4441
VrotateX
p4442
a(lp4443
(lp4444
F0
aF0
a(lp4445
Vauto
p4446
aVauto
p4447
aF0
aF0
aF0
aF0
aaaaa(lp4448
VrotateY
p4449
a(lp4450
(lp4451
F0
aF0
a(lp4452
Vauto
p4453
aVauto
p4454
aF0
aF0
aF0
aF0
aaaaa(lp4455
VrotateZ
p4456
a(lp4457
(lp4458
F0
aF0
a(lp4459
Vauto
p4460
aVauto
p4461
aF0
aF0
aF0
aF0
aaaaa(lp4462
VpoleVectorVis
p4463
a(lp4464
(lp4465
F0
aF0
a(lp4466
Vauto
p4467
aVauto
p4468
aF0
aF0
aF0
aF0
aaaaaaaaa(lp4469
S'thumb_r_ik_anim'
p4470
a(lp4471
(lp4472
Na(lp4473
(lp4474
VtranslateX
p4475
a(lp4476
(lp4477
F0
aF0
a(lp4478
Vauto
p4479
aVauto
p4480
aF0
aF0
aF0
aF0
aaaaa(lp4481
VtranslateY
p4482
a(lp4483
(lp4484
F0
aF0
a(lp4485
Vauto
p4486
aVauto
p4487
aF0
aF0
aF0
aF0
aaaaa(lp4488
VtranslateZ
p4489
a(lp4490
(lp4491
F0
aF0
a(lp4492
Vauto
p4493
aVauto
p4494
aF0
aF0
aF0
aF0
aaaaa(lp4495
VrotateX
p4496
a(lp4497
(lp4498
F0
aF0
a(lp4499
Vauto
p4500
aVauto
p4501
aF0
aF0
aF0
aF0
aaaaa(lp4502
VrotateY
p4503
a(lp4504
(lp4505
F0
aF0
a(lp4506
Vauto
p4507
aVauto
p4508
aF0
aF0
aF0
aF0
aaaaa(lp4509
VrotateZ
p4510
a(lp4511
(lp4512
F0
aF0
a(lp4513
Vauto
p4514
aVauto
p4515
aF0
aF0
aF0
aF0
aaaaa(lp4516
VpoleVectorVis
p4517
a(lp4518
(lp4519
F0
aF0
a(lp4520
Vauto
p4521
aVauto
p4522
aF0
aF0
aF0
aF0
aaaaaaaaa(lp4523
S'index_l_poleVector'
p4524
a(lp4525
(lp4526
Na(lp4527
(lp4528
VtranslateX
p4529
a(lp4530
(lp4531
F0
aF0
a(lp4532
Vauto
p4533
aVauto
p4534
aF0
aF0
aF0
aF0
aaaaa(lp4535
VtranslateY
p4536
a(lp4537
(lp4538
F0
aF0
a(lp4539
Vauto
p4540
aVauto
p4541
aF0
aF0
aF0
aF0
aaaaa(lp4542
VtranslateZ
p4543
a(lp4544
(lp4545
F0
aF0
a(lp4546
Vauto
p4547
aVauto
p4548
aF0
aF0
aF0
aF0
aaaaa(lp4549
VrotateX
p4550
a(lp4551
(lp4552
F0
aF0
a(lp4553
Vauto
p4554
aVauto
p4555
aF0
aF0
aF0
aF0
aaaaa(lp4556
VrotateY
p4557
a(lp4558
(lp4559
F0
aF0
a(lp4560
Vauto
p4561
aVauto
p4562
aF0
aF0
aF0
aF0
aaaaa(lp4563
VrotateZ
p4564
a(lp4565
(lp4566
F0
aF0
a(lp4567
Vauto
p4568
aVauto
p4569
aF0
aF0
aF0
aF0
aaaaaaaaa(lp4570
S'index_r_poleVector'
p4571
a(lp4572
(lp4573
Na(lp4574
(lp4575
VtranslateX
p4576
a(lp4577
(lp4578
F0
aF0
a(lp4579
Vauto
p4580
aVauto
p4581
aF0
aF0
aF0
aF0
aaaaa(lp4582
VtranslateY
p4583
a(lp4584
(lp4585
F0
aF0
a(lp4586
Vauto
p4587
aVauto
p4588
aF0
aF0
aF0
aF0
aaaaa(lp4589
VtranslateZ
p4590
a(lp4591
(lp4592
F0
aF0
a(lp4593
Vauto
p4594
aVauto
p4595
aF0
aF0
aF0
aF0
aaaaa(lp4596
VrotateX
p4597
a(lp4598
(lp4599
F0
aF0
a(lp4600
Vauto
p4601
aVauto
p4602
aF0
aF0
aF0
aF0
aaaaa(lp4603
VrotateY
p4604
a(lp4605
(lp4606
F0
aF0
a(lp4607
Vauto
p4608
aVauto
p4609
aF0
aF0
aF0
aF0
aaaaa(lp4610
VrotateZ
p4611
a(lp4612
(lp4613
F0
aF0
a(lp4614
Vauto
p4615
aVauto
p4616
aF0
aF0
aF0
aF0
aaaaaaaaa(lp4617
S'middle_l_poleVector'
p4618
a(lp4619
(lp4620
Na(lp4621
(lp4622
VtranslateX
p4623
a(lp4624
(lp4625
F0
aF0
a(lp4626
Vauto
p4627
aVauto
p4628
aF0
aF0
aF0
aF0
aaaaa(lp4629
VtranslateY
p4630
a(lp4631
(lp4632
F0
aF0
a(lp4633
Vauto
p4634
aVauto
p4635
aF0
aF0
aF0
aF0
aaaaa(lp4636
VtranslateZ
p4637
a(lp4638
(lp4639
F0
aF0
a(lp4640
Vauto
p4641
aVauto
p4642
aF0
aF0
aF0
aF0
aaaaa(lp4643
VrotateX
p4644
a(lp4645
(lp4646
F0
aF0
a(lp4647
Vauto
p4648
aVauto
p4649
aF0
aF0
aF0
aF0
aaaaa(lp4650
VrotateY
p4651
a(lp4652
(lp4653
F0
aF0
a(lp4654
Vauto
p4655
aVauto
p4656
aF0
aF0
aF0
aF0
aaaaa(lp4657
VrotateZ
p4658
a(lp4659
(lp4660
F0
aF0
a(lp4661
Vauto
p4662
aVauto
p4663
aF0
aF0
aF0
aF0
aaaaaaaaa(lp4664
S'middle_r_poleVector'
p4665
a(lp4666
(lp4667
Na(lp4668
(lp4669
VtranslateX
p4670
a(lp4671
(lp4672
F0
aF0
a(lp4673
Vauto
p4674
aVauto
p4675
aF0
aF0
aF0
aF0
aaaaa(lp4676
VtranslateY
p4677
a(lp4678
(lp4679
F0
aF0
a(lp4680
Vauto
p4681
aVauto
p4682
aF0
aF0
aF0
aF0
aaaaa(lp4683
VtranslateZ
p4684
a(lp4685
(lp4686
F0
aF0
a(lp4687
Vauto
p4688
aVauto
p4689
aF0
aF0
aF0
aF0
aaaaa(lp4690
VrotateX
p4691
a(lp4692
(lp4693
F0
aF0
a(lp4694
Vauto
p4695
aVauto
p4696
aF0
aF0
aF0
aF0
aaaaa(lp4697
VrotateY
p4698
a(lp4699
(lp4700
F0
aF0
a(lp4701
Vauto
p4702
aVauto
p4703
aF0
aF0
aF0
aF0
aaaaa(lp4704
VrotateZ
p4705
a(lp4706
(lp4707
F0
aF0
a(lp4708
Vauto
p4709
aVauto
p4710
aF0
aF0
aF0
aF0
aaaaaaaaa(lp4711
S'ring_l_poleVector'
p4712
a(lp4713
(lp4714
Na(lp4715
(lp4716
VtranslateX
p4717
a(lp4718
(lp4719
F0
aF0
a(lp4720
Vauto
p4721
aVauto
p4722
aF0
aF0
aF0
aF0
aaaaa(lp4723
VtranslateY
p4724
a(lp4725
(lp4726
F0
aF0
a(lp4727
Vauto
p4728
aVauto
p4729
aF0
aF0
aF0
aF0
aaaaa(lp4730
VtranslateZ
p4731
a(lp4732
(lp4733
F0
aF0
a(lp4734
Vauto
p4735
aVauto
p4736
aF0
aF0
aF0
aF0
aaaaa(lp4737
VrotateX
p4738
a(lp4739
(lp4740
F0
aF0
a(lp4741
Vauto
p4742
aVauto
p4743
aF0
aF0
aF0
aF0
aaaaa(lp4744
VrotateY
p4745
a(lp4746
(lp4747
F0
aF0
a(lp4748
Vauto
p4749
aVauto
p4750
aF0
aF0
aF0
aF0
aaaaa(lp4751
VrotateZ
p4752
a(lp4753
(lp4754
F0
aF0
a(lp4755
Vauto
p4756
aVauto
p4757
aF0
aF0
aF0
aF0
aaaaaaaaa(lp4758
S'ring_r_poleVector'
p4759
a(lp4760
(lp4761
Na(lp4762
(lp4763
VtranslateX
p4764
a(lp4765
(lp4766
F0
aF0
a(lp4767
Vauto
p4768
aVauto
p4769
aF0
aF0
aF0
aF0
aaaaa(lp4770
VtranslateY
p4771
a(lp4772
(lp4773
F0
aF0
a(lp4774
Vauto
p4775
aVauto
p4776
aF0
aF0
aF0
aF0
aaaaa(lp4777
VtranslateZ
p4778
a(lp4779
(lp4780
F0
aF0
a(lp4781
Vauto
p4782
aVauto
p4783
aF0
aF0
aF0
aF0
aaaaa(lp4784
VrotateX
p4785
a(lp4786
(lp4787
F0
aF0
a(lp4788
Vauto
p4789
aVauto
p4790
aF0
aF0
aF0
aF0
aaaaa(lp4791
VrotateY
p4792
a(lp4793
(lp4794
F0
aF0
a(lp4795
Vauto
p4796
aVauto
p4797
aF0
aF0
aF0
aF0
aaaaa(lp4798
VrotateZ
p4799
a(lp4800
(lp4801
F0
aF0
a(lp4802
Vauto
p4803
aVauto
p4804
aF0
aF0
aF0
aF0
aaaaaaaaa(lp4805
S'pinky_l_poleVector'
p4806
a(lp4807
(lp4808
Na(lp4809
(lp4810
VtranslateX
p4811
a(lp4812
(lp4813
F0
aF0
a(lp4814
Vauto
p4815
aVauto
p4816
aF0
aF0
aF0
aF0
aaaaa(lp4817
VtranslateY
p4818
a(lp4819
(lp4820
F0
aF0
a(lp4821
Vauto
p4822
aVauto
p4823
aF0
aF0
aF0
aF0
aaaaa(lp4824
VtranslateZ
p4825
a(lp4826
(lp4827
F0
aF0
a(lp4828
Vauto
p4829
aVauto
p4830
aF0
aF0
aF0
aF0
aaaaa(lp4831
VrotateX
p4832
a(lp4833
(lp4834
F0
aF0
a(lp4835
Vauto
p4836
aVauto
p4837
aF0
aF0
aF0
aF0
aaaaa(lp4838
VrotateY
p4839
a(lp4840
(lp4841
F0
aF0
a(lp4842
Vauto
p4843
aVauto
p4844
aF0
aF0
aF0
aF0
aaaaa(lp4845
VrotateZ
p4846
a(lp4847
(lp4848
F0
aF0
a(lp4849
Vauto
p4850
aVauto
p4851
aF0
aF0
aF0
aF0
aaaaaaaaa(lp4852
S'pinky_r_poleVector'
p4853
a(lp4854
(lp4855
Na(lp4856
(lp4857
VtranslateX
p4858
a(lp4859
(lp4860
F0
aF0
a(lp4861
Vauto
p4862
aVauto
p4863
aF0
aF0
aF0
aF0
aaaaa(lp4864
VtranslateY
p4865
a(lp4866
(lp4867
F0
aF0
a(lp4868
Vauto
p4869
aVauto
p4870
aF0
aF0
aF0
aF0
aaaaa(lp4871
VtranslateZ
p4872
a(lp4873
(lp4874
F0
aF0
a(lp4875
Vauto
p4876
aVauto
p4877
aF0
aF0
aF0
aF0
aaaaa(lp4878
VrotateX
p4879
a(lp4880
(lp4881
F0
aF0
a(lp4882
Vauto
p4883
aVauto
p4884
aF0
aF0
aF0
aF0
aaaaa(lp4885
VrotateY
p4886
a(lp4887
(lp4888
F0
aF0
a(lp4889
Vauto
p4890
aVauto
p4891
aF0
aF0
aF0
aF0
aaaaa(lp4892
VrotateZ
p4893
a(lp4894
(lp4895
F0
aF0
a(lp4896
Vauto
p4897
aVauto
p4898
aF0
aF0
aF0
aF0
aaaaaaaaa(lp4899
S'thumb_l_poleVector'
p4900
a(lp4901
(lp4902
Na(lp4903
(lp4904
VtranslateX
p4905
a(lp4906
(lp4907
F0
aF0
a(lp4908
Vauto
p4909
aVauto
p4910
aF0
aF0
aF0
aF0
aaaaa(lp4911
VtranslateY
p4912
a(lp4913
(lp4914
F0
aF0
a(lp4915
Vauto
p4916
aVauto
p4917
aF0
aF0
aF0
aF0
aaaaa(lp4918
VtranslateZ
p4919
a(lp4920
(lp4921
F0
aF0
a(lp4922
Vauto
p4923
aVauto
p4924
aF0
aF0
aF0
aF0
aaaaa(lp4925
VrotateX
p4926
a(lp4927
(lp4928
F0
aF0
a(lp4929
Vauto
p4930
aVauto
p4931
aF0
aF0
aF0
aF0
aaaaa(lp4932
VrotateY
p4933
a(lp4934
(lp4935
F0
aF0
a(lp4936
Vauto
p4937
aVauto
p4938
aF0
aF0
aF0
aF0
aaaaa(lp4939
VrotateZ
p4940
a(lp4941
(lp4942
F0
aF0
a(lp4943
Vauto
p4944
aVauto
p4945
aF0
aF0
aF0
aF0
aaaaaaaaa(lp4946
S'thumb_r_poleVector'
p4947
a(lp4948
(lp4949
Na(lp4950
(lp4951
VtranslateX
p4952
a(lp4953
(lp4954
F0
aF0
a(lp4955
Vauto
p4956
aVauto
p4957
aF0
aF0
aF0
aF0
aaaaa(lp4958
VtranslateY
p4959
a(lp4960
(lp4961
F0
aF0
a(lp4962
Vauto
p4963
aVauto
p4964
aF0
aF0
aF0
aF0
aaaaa(lp4965
VtranslateZ
p4966
a(lp4967
(lp4968
F0
aF0
a(lp4969
Vauto
p4970
aVauto
p4971
aF0
aF0
aF0
aF0
aaaaa(lp4972
VrotateX
p4973
a(lp4974
(lp4975
F0
aF0
a(lp4976
Vauto
p4977
aVauto
p4978
aF0
aF0
aF0
aF0
aaaaa(lp4979
VrotateY
p4980
a(lp4981
(lp4982
F0
aF0
a(lp4983
Vauto
p4984
aVauto
p4985
aF0
aF0
aF0
aF0
aaaaa(lp4986
VrotateZ
p4987
a(lp4988
(lp4989
F0
aF0
a(lp4990
Vauto
p4991
aVauto
p4992
aF0
aF0
aF0
aF0
aaaaaaaaa(lp4993
S'l_global_ik_anim'
p4994
a(lp4995
(lp4996
Na(lp4997
(lp4998
VtranslateX
p4999
a(lp5000
(lp5001
F0
aF0
a(lp5002
Vauto
p5003
aVauto
p5004
aF0
aF0
aF0
aF0
aaaaa(lp5005
VtranslateY
p5006
a(lp5007
(lp5008
F0
aF0
a(lp5009
Vauto
p5010
aVauto
p5011
aF0
aF0
aF0
aF0
aaaaa(lp5012
VtranslateZ
p5013
a(lp5014
(lp5015
F0
aF0
a(lp5016
Vauto
p5017
aVauto
p5018
aF0
aF0
aF0
aF0
aaaaa(lp5019
VrotateX
p5020
a(lp5021
(lp5022
F0
aF0
a(lp5023
Vauto
p5024
aVauto
p5025
aF0
aF0
aF0
aF0
aaaaa(lp5026
VrotateY
p5027
a(lp5028
(lp5029
F0
aF0
a(lp5030
Vauto
p5031
aVauto
p5032
aF0
aF0
aF0
aF0
aaaaa(lp5033
VrotateZ
p5034
a(lp5035
(lp5036
F0
aF0
a(lp5037
Vauto
p5038
aVauto
p5039
aF0
aF0
aF0
aF0
aaaaaaaaa(lp5040
S'r_global_ik_anim'
p5041
a(lp5042
(lp5043
Na(lp5044
(lp5045
VtranslateX
p5046
a(lp5047
(lp5048
F0
aF0
a(lp5049
Vauto
p5050
aVauto
p5051
aF0
aF0
aF0
aF0
aaaaa(lp5052
VtranslateY
p5053
a(lp5054
(lp5055
F0
aF0
a(lp5056
Vauto
p5057
aVauto
p5058
aF0
aF0
aF0
aF0
aaaaa(lp5059
VtranslateZ
p5060
a(lp5061
(lp5062
F0
aF0
a(lp5063
Vauto
p5064
aVauto
p5065
aF0
aF0
aF0
aF0
aaaaa(lp5066
VrotateX
p5067
a(lp5068
(lp5069
F0
aF0
a(lp5070
Vauto
p5071
aVauto
p5072
aF0
aF0
aF0
aF0
aaaaa(lp5073
VrotateY
p5074
a(lp5075
(lp5076
F0
aF0
a(lp5077
Vauto
p5078
aVauto
p5079
aF0
aF0
aF0
aF0
aaaaa(lp5080
VrotateZ
p5081
a(lp5082
(lp5083
F0
aF0
a(lp5084
Vauto
p5085
aVauto
p5086
aF0
aF0
aF0
aF0
aaaaaaaaa(lp5087
S'Rig_Settings'
p5088
a(lp5089
(lp5090
Na(lp5091
(lp5092
Vspine_ik
p5093
a(lp5094
(lp5095
F0
aF1
a(lp5096
Vauto
p5097
aVauto
p5098
aF0
aF0
aF0
aF0
aaaaa(lp5099
Vspine_fk
p5100
a(lp5101
(lp5102
F0
aF0
a(lp5103
Vauto
p5104
aVauto
p5105
aF0
aF0
aF0
aF0
aaaaa(lp5106
VlLegMode
p5107
a(lp5108
(lp5109
F0
aF1
a(lp5110
Vspline
p5111
aVstep
p5112
aF0
aF0
aF0
aF0
aaaaa(lp5113
VlThighTwistAmount
p5114
a(lp5115
(lp5116
F0
aF0.90000000000000002
a(lp5117
Vauto
p5118
aVauto
p5119
aF0
aF0
aF0
aF0
aaaaa(lp5120
VlCalfTwistAmount
p5121
a(lp5122
(lp5123
F0
aF0.5
a(lp5124
Vauto
p5125
aVauto
p5126
aF0
aF0
aF0
aF0
aaaaa(lp5127
VrLegMode
p5128
a(lp5129
(lp5130
F0
aF1
a(lp5131
Vspline
p5132
aVstep
p5133
aF0
aF0
aF0
aF0
aaaaa(lp5134
VrThighTwistAmount
p5135
a(lp5136
(lp5137
F0
aF0.90000000000000002
a(lp5138
Vauto
p5139
aVauto
p5140
aF0
aF0
aF0
aF0
aaaaa(lp5141
VrCalfTwistAmount
p5142
a(lp5143
(lp5144
F0
aF0.5
a(lp5145
Vauto
p5146
aVauto
p5147
aF0
aF0
aF0
aF0
aaaaa(lp5148
VlFkArmOrient
p5149
a(lp5150
(lp5151
F0
aF0
a(lp5152
Vspline
p5153
aVstep
p5154
aF0
aF0
aF0
aF0
aaaaa(lp5155
VlArmMode
p5156
a(lp5157
(lp5158
F0
aF1
a(lp5159
Vspline
p5160
aVstep
p5161
aF0
aF0
aF0
aF0
aaaaa(lp5162
VlClavMode
p5163
a(lp5164
(lp5165
F0
aF1
a(lp5166
Vspline
p5167
aVstep
p5168
aF0
aF0
aF0
aF0
aaaaa(lp5169
VltwistCtrlVis
p5170
a(lp5171
(lp5172
F0
aF0
a(lp5173
Vspline
p5174
aVstep
p5175
aF0
aF0
aF0
aF0
aaaaa(lp5176
VlUpperarmTwistAmount
p5177
a(lp5178
(lp5179
F0
aF0.90000000000000002
a(lp5180
Vauto
p5181
aVauto
p5182
aF0
aF0
aF0
aF0
aaaaa(lp5183
VltwistCtrlVisLower
p5184
a(lp5185
(lp5186
F0
aF0
a(lp5187
Vspline
p5188
aVstep
p5189
aF0
aF0
aF0
aF0
aaaaa(lp5190
VlForearmTwistAmount
p5191
a(lp5192
(lp5193
F0
aF0.5
a(lp5194
Vauto
p5195
aVauto
p5196
aF0
aF0
aF0
aF0
aaaaa(lp5197
VrFkArmOrient
p5198
a(lp5199
(lp5200
F0
aF0
a(lp5201
Vspline
p5202
aVstep
p5203
aF0
aF0
aF0
aF0
aaaaa(lp5204
VrArmMode
p5205
a(lp5206
(lp5207
F0
aF1
a(lp5208
Vspline
p5209
aVstep
p5210
aF0
aF0
aF0
aF0
aaaaa(lp5211
VrClavMode
p5212
a(lp5213
(lp5214
F0
aF1
a(lp5215
Vspline
p5216
aVstep
p5217
aF0
aF0
aF0
aF0
aaaaa(lp5218
VrtwistCtrlVis
p5219
a(lp5220
(lp5221
F0
aF0
a(lp5222
Vspline
p5223
aVstep
p5224
aF0
aF0
aF0
aF0
aaaaa(lp5225
VrUpperarmTwistAmount
p5226
a(lp5227
(lp5228
F0
aF0.90000000000000002
a(lp5229
Vauto
p5230
aVauto
p5231
aF0
aF0
aF0
aF0
aaaaa(lp5232
VrtwistCtrlVisLower
p5233
a(lp5234
(lp5235
F0
aF0
a(lp5236
Vspline
p5237
aVstep
p5238
aF0
aF0
aF0
aF0
aaaaa(lp5239
VrForearmTwistAmount
p5240
a(lp5241
(lp5242
F0
aF0.5
a(lp5243
Vauto
p5244
aVauto
p5245
aF0
aF0
aF0
aF0
aaaaaaaaa(lp5246
Vbigtoe_ik_ctrl_l_grp_space_switcher
p5247
a(lp5248
(lp5249
Na(lp5250
(lp5251
Vvisibility
p5252
a(lp5253
(lp5254
F0
aF1
a(lp5255
Vspline
p5256
aVstep
p5257
aF0
aF0
aF0
aF0
aaaaa(lp5258
VtranslateX
p5259
a(lp5260
(lp5261
F0
aF1.7763568394002505e-15
a(lp5262
Vauto
p5263
aVauto
p5264
aF0
aF0
aF0
aF0
aaaaa(lp5265
VtranslateY
p5266
a(lp5267
(lp5268
F0
aF-4.4408920985006262e-16
a(lp5269
Vauto
p5270
aVauto
p5271
aF0
aF0
aF0
aF0
aaaaa(lp5272
VtranslateZ
p5273
a(lp5274
(lp5275
F0
aF0
a(lp5276
Vauto
p5277
aVauto
p5278
aF0
aF0
aF0
aF0
aaaaa(lp5279
VrotateX
p5280
a(lp5281
(lp5282
F0
aF-7.9513867036587939e-16
a(lp5283
Vauto
p5284
aVauto
p5285
aF0
aF0
aF0
aF0
aaaaa(lp5286
VrotateY
p5287
a(lp5288
(lp5289
F0
aF-0
a(lp5290
Vauto
p5291
aVauto
p5292
aF0
aF0
aF0
aF0
aaaaa(lp5293
VrotateZ
p5294
a(lp5295
(lp5296
F0
aF0
a(lp5297
Vauto
p5298
aVauto
p5299
aF0
aF0
aF0
aF0
aaaaa(lp5300
VscaleX
p5301
a(lp5302
(lp5303
F0
aF1
a(lp5304
Vauto
p5305
aVauto
p5306
aF0
aF0
aF0
aF0
aaaaa(lp5307
VscaleY
p5308
a(lp5309
(lp5310
F0
aF0.99999999999999989
a(lp5311
Vauto
p5312
aVauto
p5313
aF0
aF0
aF0
aF0
aaaaa(lp5314
VscaleZ
p5315
a(lp5316
(lp5317
F0
aF0.99999999999999989
a(lp5318
Vauto
p5319
aVauto
p5320
aF0
aF0
aF0
aF0
aaaaa(lp5321
Vspace_world
p5322
a(lp5323
(lp5324
F0
aF0
a(lp5325
Vauto
p5326
aVauto
p5327
aF0
aF0
aF0
aF0
aaaaaaaaa(lp5328
Vbigtoe_ik_ctrl_r_grp_space_switcher
p5329
a(lp5330
(lp5331
Na(lp5332
(lp5333
Vvisibility
p5334
a(lp5335
(lp5336
F0
aF1
a(lp5337
Vspline
p5338
aVstep
p5339
aF0
aF0
aF0
aF0
aaaaa(lp5340
VtranslateX
p5341
a(lp5342
(lp5343
F0
aF1.7763568394002505e-15
a(lp5344
Vauto
p5345
aVauto
p5346
aF0
aF0
aF0
aF0
aaaaa(lp5347
VtranslateY
p5348
a(lp5349
(lp5350
F0
aF0
a(lp5351
Vauto
p5352
aVauto
p5353
aF0
aF0
aF0
aF0
aaaaa(lp5354
VtranslateZ
p5355
a(lp5356
(lp5357
F0
aF0
a(lp5358
Vauto
p5359
aVauto
p5360
aF0
aF0
aF0
aF0
aaaaa(lp5361
VrotateX
p5362
a(lp5363
(lp5364
F0
aF0
a(lp5365
Vauto
p5366
aVauto
p5367
aF0
aF0
aF0
aF0
aaaaa(lp5368
VrotateY
p5369
a(lp5370
(lp5371
F0
aF-9.9392333795734899e-17
a(lp5372
Vauto
p5373
aVauto
p5374
aF0
aF0
aF0
aF0
aaaaa(lp5375
VrotateZ
p5376
a(lp5377
(lp5378
F0
aF0
a(lp5379
Vauto
p5380
aVauto
p5381
aF0
aF0
aF0
aF0
aaaaa(lp5382
VscaleX
p5383
a(lp5384
(lp5385
F0
aF1
a(lp5386
Vauto
p5387
aVauto
p5388
aF0
aF0
aF0
aF0
aaaaa(lp5389
VscaleY
p5390
a(lp5391
(lp5392
F0
aF0.99999999999999989
a(lp5393
Vauto
p5394
aVauto
p5395
aF0
aF0
aF0
aF0
aaaaa(lp5396
VscaleZ
p5397
a(lp5398
(lp5399
F0
aF0.99999999999999989
a(lp5400
Vauto
p5401
aVauto
p5402
aF0
aF0
aF0
aF0
aaaaa(lp5403
Vspace_world
p5404
a(lp5405
(lp5406
F0
aF0
a(lp5407
Vauto
p5408
aVauto
p5409
aF0
aF0
aF0
aF0
aaaaaaaaa(lp5410
Vbody_anim_space_switcher
p5411
a(lp5412
(lp5413
Na(lp5414
(lp5415
Vvisibility
p5416
a(lp5417
(lp5418
F0
aF1
a(lp5419
Vspline
p5420
aVstep
p5421
aF0
aF0
aF0
aF0
aaaaa(lp5422
VtranslateX
p5423
a(lp5424
(lp5425
F0
aF0
a(lp5426
Vauto
p5427
aVauto
p5428
aF0
aF0
aF0
aF0
aaaaa(lp5429
VtranslateY
p5430
a(lp5431
(lp5432
F0
aF0
a(lp5433
Vauto
p5434
aVauto
p5435
aF0
aF0
aF0
aF0
aaaaa(lp5436
VtranslateZ
p5437
a(lp5438
(lp5439
F0
aF0
a(lp5440
Vauto
p5441
aVauto
p5442
aF0
aF0
aF0
aF0
aaaaa(lp5443
VrotateX
p5444
a(lp5445
(lp5446
F0
aF0
a(lp5447
Vauto
p5448
aVauto
p5449
aF0
aF0
aF0
aF0
aaaaa(lp5450
VrotateY
p5451
a(lp5452
(lp5453
F0
aF0
a(lp5454
Vauto
p5455
aVauto
p5456
aF0
aF0
aF0
aF0
aaaaa(lp5457
VrotateZ
p5458
a(lp5459
(lp5460
F0
aF0
a(lp5461
Vauto
p5462
aVauto
p5463
aF0
aF0
aF0
aF0
aaaaa(lp5464
VscaleX
p5465
a(lp5466
(lp5467
F0
aF1
a(lp5468
Vauto
p5469
aVauto
p5470
aF0
aF0
aF0
aF0
aaaaa(lp5471
VscaleY
p5472
a(lp5473
(lp5474
F0
aF1
a(lp5475
Vauto
p5476
aVauto
p5477
aF0
aF0
aF0
aF0
aaaaa(lp5478
VscaleZ
p5479
a(lp5480
(lp5481
F0
aF1
a(lp5482
Vauto
p5483
aVauto
p5484
aF0
aF0
aF0
aF0
aaaaa(lp5485
Vspace_world
p5486
a(lp5487
(lp5488
F0
aF0
a(lp5489
Vauto
p5490
aVauto
p5491
aF0
aF0
aF0
aF0
aaaaaaaaa(lp5492
Vchest_ik_anim_space_switcher
p5493
a(lp5494
(lp5495
Na(lp5496
(lp5497
Vvisibility
p5498
a(lp5499
(lp5500
F0
aF1
a(lp5501
Vspline
p5502
aVstep
p5503
aF0
aF0
aF0
aF0
aaaaa(lp5504
VtranslateX
p5505
a(lp5506
(lp5507
F0
aF0
a(lp5508
Vauto
p5509
aVauto
p5510
aF0
aF0
aF0
aF0
aaaaa(lp5511
VtranslateY
p5512
a(lp5513
(lp5514
F0
aF0
a(lp5515
Vauto
p5516
aVauto
p5517
aF0
aF0
aF0
aF0
aaaaa(lp5518
VtranslateZ
p5519
a(lp5520
(lp5521
F0
aF2.5243548967072378e-29
a(lp5522
Vauto
p5523
aVauto
p5524
aF0
aF0
aF0
aF0
aaaaa(lp5525
VrotateX
p5526
a(lp5527
(lp5528
F0
aF0
a(lp5529
Vauto
p5530
aVauto
p5531
aF0
aF0
aF0
aF0
aaaaa(lp5532
VrotateY
p5533
a(lp5534
(lp5535
F0
aF-1.1299600123008406e-29
a(lp5536
Vauto
p5537
aVauto
p5538
aF0
aF0
aF0
aF0
aaaaa(lp5539
VrotateZ
p5540
a(lp5541
(lp5542
F0
aF0
a(lp5543
Vauto
p5544
aVauto
p5545
aF0
aF0
aF0
aF0
aaaaa(lp5546
VscaleX
p5547
a(lp5548
(lp5549
F0
aF1
a(lp5550
Vauto
p5551
aVauto
p5552
aF0
aF0
aF0
aF0
aaaaa(lp5553
VscaleY
p5554
a(lp5555
(lp5556
F0
aF1
a(lp5557
Vauto
p5558
aVauto
p5559
aF0
aF0
aF0
aF0
aaaaa(lp5560
VscaleZ
p5561
a(lp5562
(lp5563
F0
aF1
a(lp5564
Vauto
p5565
aVauto
p5566
aF0
aF0
aF0
aF0
aaaaa(lp5567
Vspace_world
p5568
a(lp5569
(lp5570
F0
aF0
a(lp5571
Vauto
p5572
aVauto
p5573
aF0
aF0
aF0
aF0
aaaaa(lp5574
Vspace_chest_ik_world_aligned
p5575
a(lp5576
(lp5577
F0
aF0
a(lp5578
Vauto
p5579
aVauto
p5580
aF0
aF0
aF0
aF0
aaaaaaaaa(lp5581
Vik_elbow_l_anim_space_switcher
p5582
a(lp5583
(lp5584
Na(lp5585
(lp5586
VtranslateX
p5587
a(lp5588
(lp5589
F0
aF0
a(lp5590
Vauto
p5591
aVauto
p5592
aF0
aF0
aF0
aF0
aaaaa(lp5593
VtranslateY
p5594
a(lp5595
(lp5596
F0
aF0
a(lp5597
Vauto
p5598
aVauto
p5599
aF0
aF0
aF0
aF0
aaaaa(lp5600
VtranslateZ
p5601
a(lp5602
(lp5603
F0
aF0
a(lp5604
Vauto
p5605
aVauto
p5606
aF0
aF0
aF0
aF0
aaaaa(lp5607
VrotateX
p5608
a(lp5609
(lp5610
F0
aF0
a(lp5611
Vauto
p5612
aVauto
p5613
aF0
aF0
aF0
aF0
aaaaa(lp5614
VrotateY
p5615
a(lp5616
(lp5617
F0
aF0
a(lp5618
Vauto
p5619
aVauto
p5620
aF0
aF0
aF0
aF0
aaaaa(lp5621
VrotateZ
p5622
a(lp5623
(lp5624
F0
aF0
a(lp5625
Vauto
p5626
aVauto
p5627
aF0
aF0
aF0
aF0
aaaaa(lp5628
VscaleX
p5629
a(lp5630
(lp5631
F0
aF1
a(lp5632
Vauto
p5633
aVauto
p5634
aF0
aF0
aF0
aF0
aaaaa(lp5635
VscaleY
p5636
a(lp5637
(lp5638
F0
aF1
a(lp5639
Vauto
p5640
aVauto
p5641
aF0
aF0
aF0
aF0
aaaaa(lp5642
VscaleZ
p5643
a(lp5644
(lp5645
F0
aF1
a(lp5646
Vauto
p5647
aVauto
p5648
aF0
aF0
aF0
aF0
aaaaa(lp5649
Vspace_world
p5650
a(lp5651
(lp5652
F0
aF0
a(lp5653
Vauto
p5654
aVauto
p5655
aF0
aF0
aF0
aF0
aaaaa(lp5656
Vspace_body_anim
p5657
a(lp5658
(lp5659
F0
aF0
a(lp5660
Vauto
p5661
aVauto
p5662
aF0
aF0
aF0
aF0
aaaaa(lp5663
Vspace_chest_ik_anim
p5664
a(lp5665
(lp5666
F0
aF0
a(lp5667
Vauto
p5668
aVauto
p5669
aF0
aF0
aF0
aF0
aaaaaaaaa(lp5670
Vik_elbow_r_anim_space_switcher
p5671
a(lp5672
(lp5673
Na(lp5674
(lp5675
VtranslateX
p5676
a(lp5677
(lp5678
F0
aF0
a(lp5679
Vauto
p5680
aVauto
p5681
aF0
aF0
aF0
aF0
aaaaa(lp5682
VtranslateY
p5683
a(lp5684
(lp5685
F0
aF0
a(lp5686
Vauto
p5687
aVauto
p5688
aF0
aF0
aF0
aF0
aaaaa(lp5689
VtranslateZ
p5690
a(lp5691
(lp5692
F0
aF0
a(lp5693
Vauto
p5694
aVauto
p5695
aF0
aF0
aF0
aF0
aaaaa(lp5696
VrotateX
p5697
a(lp5698
(lp5699
F0
aF0
a(lp5700
Vauto
p5701
aVauto
p5702
aF0
aF0
aF0
aF0
aaaaa(lp5703
VrotateY
p5704
a(lp5705
(lp5706
F0
aF0
a(lp5707
Vauto
p5708
aVauto
p5709
aF0
aF0
aF0
aF0
aaaaa(lp5710
VrotateZ
p5711
a(lp5712
(lp5713
F0
aF0
a(lp5714
Vauto
p5715
aVauto
p5716
aF0
aF0
aF0
aF0
aaaaa(lp5717
VscaleX
p5718
a(lp5719
(lp5720
F0
aF1
a(lp5721
Vauto
p5722
aVauto
p5723
aF0
aF0
aF0
aF0
aaaaa(lp5724
VscaleY
p5725
a(lp5726
(lp5727
F0
aF1
a(lp5728
Vauto
p5729
aVauto
p5730
aF0
aF0
aF0
aF0
aaaaa(lp5731
VscaleZ
p5732
a(lp5733
(lp5734
F0
aF1
a(lp5735
Vauto
p5736
aVauto
p5737
aF0
aF0
aF0
aF0
aaaaa(lp5738
Vspace_world
p5739
a(lp5740
(lp5741
F0
aF0
a(lp5742
Vauto
p5743
aVauto
p5744
aF0
aF0
aF0
aF0
aaaaa(lp5745
Vspace_body_anim
p5746
a(lp5747
(lp5748
F0
aF0
a(lp5749
Vauto
p5750
aVauto
p5751
aF0
aF0
aF0
aF0
aaaaa(lp5752
Vspace_chest_ik_anim
p5753
a(lp5754
(lp5755
F0
aF0
a(lp5756
Vauto
p5757
aVauto
p5758
aF0
aF0
aF0
aF0
aaaaaaaaa(lp5759
Vik_foot_anim_l_space_switcher
p5760
a(lp5761
(lp5762
Na(lp5763
(lp5764
Vvisibility
p5765
a(lp5766
(lp5767
F0
aF1
a(lp5768
Vspline
p5769
aVstep
p5770
aF0
aF0
aF0
aF0
aaaaa(lp5771
VtranslateX
p5772
a(lp5773
(lp5774
F0
aF0
a(lp5775
Vauto
p5776
aVauto
p5777
aF0
aF0
aF0
aF0
aaaaa(lp5778
VtranslateY
p5779
a(lp5780
(lp5781
F0
aF0
a(lp5782
Vauto
p5783
aVauto
p5784
aF0
aF0
aF0
aF0
aaaaa(lp5785
VtranslateZ
p5786
a(lp5787
(lp5788
F0
aF0
a(lp5789
Vauto
p5790
aVauto
p5791
aF0
aF0
aF0
aF0
aaaaa(lp5792
VrotateX
p5793
a(lp5794
(lp5795
F0
aF0
a(lp5796
Vauto
p5797
aVauto
p5798
aF0
aF0
aF0
aF0
aaaaa(lp5799
VrotateY
p5800
a(lp5801
(lp5802
F0
aF0
a(lp5803
Vauto
p5804
aVauto
p5805
aF0
aF0
aF0
aF0
aaaaa(lp5806
VrotateZ
p5807
a(lp5808
(lp5809
F0
aF0
a(lp5810
Vauto
p5811
aVauto
p5812
aF0
aF0
aF0
aF0
aaaaa(lp5813
VscaleX
p5814
a(lp5815
(lp5816
F0
aF1
a(lp5817
Vauto
p5818
aVauto
p5819
aF0
aF0
aF0
aF0
aaaaa(lp5820
VscaleY
p5821
a(lp5822
(lp5823
F0
aF1
a(lp5824
Vauto
p5825
aVauto
p5826
aF0
aF0
aF0
aF0
aaaaa(lp5827
VscaleZ
p5828
a(lp5829
(lp5830
F0
aF1
a(lp5831
Vauto
p5832
aVauto
p5833
aF0
aF0
aF0
aF0
aaaaa(lp5834
Vspace_world
p5835
a(lp5836
(lp5837
F0
aF0
a(lp5838
Vauto
p5839
aVauto
p5840
aF0
aF0
aF0
aF0
aaaaa(lp5841
Vspace_body_anim
p5842
a(lp5843
(lp5844
F0
aF0
a(lp5845
Vauto
p5846
aVauto
p5847
aF0
aF0
aF0
aF0
aaaaaaaaa(lp5848
Vik_foot_anim_r_space_switcher
p5849
a(lp5850
(lp5851
Na(lp5852
(lp5853
Vvisibility
p5854
a(lp5855
(lp5856
F0
aF1
a(lp5857
Vspline
p5858
aVstep
p5859
aF0
aF0
aF0
aF0
aaaaa(lp5860
VtranslateX
p5861
a(lp5862
(lp5863
F0
aF0
a(lp5864
Vauto
p5865
aVauto
p5866
aF0
aF0
aF0
aF0
aaaaa(lp5867
VtranslateY
p5868
a(lp5869
(lp5870
F0
aF0
a(lp5871
Vauto
p5872
aVauto
p5873
aF0
aF0
aF0
aF0
aaaaa(lp5874
VtranslateZ
p5875
a(lp5876
(lp5877
F0
aF0
a(lp5878
Vauto
p5879
aVauto
p5880
aF0
aF0
aF0
aF0
aaaaa(lp5881
VrotateX
p5882
a(lp5883
(lp5884
F0
aF0
a(lp5885
Vauto
p5886
aVauto
p5887
aF0
aF0
aF0
aF0
aaaaa(lp5888
VrotateY
p5889
a(lp5890
(lp5891
F0
aF0
a(lp5892
Vauto
p5893
aVauto
p5894
aF0
aF0
aF0
aF0
aaaaa(lp5895
VrotateZ
p5896
a(lp5897
(lp5898
F0
aF0
a(lp5899
Vauto
p5900
aVauto
p5901
aF0
aF0
aF0
aF0
aaaaa(lp5902
VscaleX
p5903
a(lp5904
(lp5905
F0
aF1
a(lp5906
Vauto
p5907
aVauto
p5908
aF0
aF0
aF0
aF0
aaaaa(lp5909
VscaleY
p5910
a(lp5911
(lp5912
F0
aF1
a(lp5913
Vauto
p5914
aVauto
p5915
aF0
aF0
aF0
aF0
aaaaa(lp5916
VscaleZ
p5917
a(lp5918
(lp5919
F0
aF1
a(lp5920
Vauto
p5921
aVauto
p5922
aF0
aF0
aF0
aF0
aaaaa(lp5923
Vspace_world
p5924
a(lp5925
(lp5926
F0
aF0
a(lp5927
Vauto
p5928
aVauto
p5929
aF0
aF0
aF0
aF0
aaaaa(lp5930
Vspace_body_anim
p5931
a(lp5932
(lp5933
F0
aF0
a(lp5934
Vauto
p5935
aVauto
p5936
aF0
aF0
aF0
aF0
aaaaaaaaa(lp5937
Vik_wrist_l_anim_space_switcher
p5938
a(lp5939
(lp5940
Na(lp5941
(lp5942
VtranslateX
p5943
a(lp5944
(lp5945
F0
aF0
a(lp5946
Vauto
p5947
aVauto
p5948
aF0
aF0
aF0
aF0
aaaaa(lp5949
VtranslateY
p5950
a(lp5951
(lp5952
F0
aF0
a(lp5953
Vauto
p5954
aVauto
p5955
aF0
aF0
aF0
aF0
aaaaa(lp5956
VtranslateZ
p5957
a(lp5958
(lp5959
F0
aF0
a(lp5960
Vauto
p5961
aVauto
p5962
aF0
aF0
aF0
aF0
aaaaa(lp5963
VrotateX
p5964
a(lp5965
(lp5966
F0
aF0
a(lp5967
Vauto
p5968
aVauto
p5969
aF0
aF0
aF0
aF0
aaaaa(lp5970
VrotateY
p5971
a(lp5972
(lp5973
F0
aF0
a(lp5974
Vauto
p5975
aVauto
p5976
aF0
aF0
aF0
aF0
aaaaa(lp5977
VrotateZ
p5978
a(lp5979
(lp5980
F0
aF0
a(lp5981
Vauto
p5982
aVauto
p5983
aF0
aF0
aF0
aF0
aaaaa(lp5984
VscaleX
p5985
a(lp5986
(lp5987
F0
aF1
a(lp5988
Vauto
p5989
aVauto
p5990
aF0
aF0
aF0
aF0
aaaaa(lp5991
VscaleY
p5992
a(lp5993
(lp5994
F0
aF1
a(lp5995
Vauto
p5996
aVauto
p5997
aF0
aF0
aF0
aF0
aaaaa(lp5998
VscaleZ
p5999
a(lp6000
(lp6001
F0
aF1
a(lp6002
Vauto
p6003
aVauto
p6004
aF0
aF0
aF0
aF0
aaaaa(lp6005
Vspace_world
p6006
a(lp6007
(lp6008
F0
aF0
a(lp6009
Vauto
p6010
aVauto
p6011
aF0
aF0
aF0
aF0
aaaaa(lp6012
Vspace_body_anim
p6013
a(lp6014
(lp6015
F0
aF0
a(lp6016
Vauto
p6017
aVauto
p6018
aF0
aF0
aF0
aF0
aaaaa(lp6019
Vspace_head_fk_anim
p6020
a(lp6021
(lp6022
F0
aF0
a(lp6023
Vauto
p6024
aVauto
p6025
aF0
aF0
aF0
aF0
aaaaa(lp6026
Vspace_chest_ik_anim
p6027
a(lp6028
(lp6029
F0
aF0
a(lp6030
Vauto
p6031
aVauto
p6032
aF0
aF0
aF0
aF0
aaaaaaaaa(lp6033
Vik_wrist_r_anim_space_switcher
p6034
a(lp6035
(lp6036
Na(lp6037
(lp6038
VtranslateX
p6039
a(lp6040
(lp6041
F0
aF0
a(lp6042
Vauto
p6043
aVauto
p6044
aF0
aF0
aF0
aF0
aaaaa(lp6045
VtranslateY
p6046
a(lp6047
(lp6048
F0
aF0
a(lp6049
Vauto
p6050
aVauto
p6051
aF0
aF0
aF0
aF0
aaaaa(lp6052
VtranslateZ
p6053
a(lp6054
(lp6055
F0
aF0
a(lp6056
Vauto
p6057
aVauto
p6058
aF0
aF0
aF0
aF0
aaaaa(lp6059
VrotateX
p6060
a(lp6061
(lp6062
F0
aF0
a(lp6063
Vauto
p6064
aVauto
p6065
aF0
aF0
aF0
aF0
aaaaa(lp6066
VrotateY
p6067
a(lp6068
(lp6069
F0
aF0
a(lp6070
Vauto
p6071
aVauto
p6072
aF0
aF0
aF0
aF0
aaaaa(lp6073
VrotateZ
p6074
a(lp6075
(lp6076
F0
aF0
a(lp6077
Vauto
p6078
aVauto
p6079
aF0
aF0
aF0
aF0
aaaaa(lp6080
VscaleX
p6081
a(lp6082
(lp6083
F0
aF1
a(lp6084
Vauto
p6085
aVauto
p6086
aF0
aF0
aF0
aF0
aaaaa(lp6087
VscaleY
p6088
a(lp6089
(lp6090
F0
aF1
a(lp6091
Vauto
p6092
aVauto
p6093
aF0
aF0
aF0
aF0
aaaaa(lp6094
VscaleZ
p6095
a(lp6096
(lp6097
F0
aF1
a(lp6098
Vauto
p6099
aVauto
p6100
aF0
aF0
aF0
aF0
aaaaa(lp6101
Vspace_world
p6102
a(lp6103
(lp6104
F0
aF0
a(lp6105
Vauto
p6106
aVauto
p6107
aF0
aF0
aF0
aF0
aaaaa(lp6108
Vspace_body_anim
p6109
a(lp6110
(lp6111
F0
aF0
a(lp6112
Vauto
p6113
aVauto
p6114
aF0
aF0
aF0
aF0
aaaaa(lp6115
Vspace_head_fk_anim
p6116
a(lp6117
(lp6118
F0
aF0
a(lp6119
Vauto
p6120
aVauto
p6121
aF0
aF0
aF0
aF0
aaaaa(lp6122
Vspace_chest_ik_anim
p6123
a(lp6124
(lp6125
F0
aF0
a(lp6126
Vauto
p6127
aVauto
p6128
aF0
aF0
aF0
aF0
aaaaaaaaa(lp6129
Vindex_ik_ctrl_l_grp_space_switcher
p6130
a(lp6131
(lp6132
Na(lp6133
(lp6134
Vvisibility
p6135
a(lp6136
(lp6137
F0
aF1
a(lp6138
Vspline
p6139
aVstep
p6140
aF0
aF0
aF0
aF0
aaaaa(lp6141
VtranslateX
p6142
a(lp6143
(lp6144
F0
aF0
a(lp6145
Vauto
p6146
aVauto
p6147
aF0
aF0
aF0
aF0
aaaaa(lp6148
VtranslateY
p6149
a(lp6150
(lp6151
F0
aF-4.4408920985006262e-16
a(lp6152
Vauto
p6153
aVauto
p6154
aF0
aF0
aF0
aF0
aaaaa(lp6155
VtranslateZ
p6156
a(lp6157
(lp6158
F0
aF0
a(lp6159
Vauto
p6160
aVauto
p6161
aF0
aF0
aF0
aF0
aaaaa(lp6162
VrotateX
p6163
a(lp6164
(lp6165
F0
aF0
a(lp6166
Vauto
p6167
aVauto
p6168
aF0
aF0
aF0
aF0
aaaaa(lp6169
VrotateY
p6170
a(lp6171
(lp6172
F0
aF3.6650923087177251e-16
a(lp6173
Vauto
p6174
aVauto
p6175
aF0
aF0
aF0
aF0
aaaaa(lp6176
VrotateZ
p6177
a(lp6178
(lp6179
F0
aF7.9513867036587919e-16
a(lp6180
Vauto
p6181
aVauto
p6182
aF0
aF0
aF0
aF0
aaaaa(lp6183
VscaleX
p6184
a(lp6185
(lp6186
F0
aF1
a(lp6187
Vauto
p6188
aVauto
p6189
aF0
aF0
aF0
aF0
aaaaa(lp6190
VscaleY
p6191
a(lp6192
(lp6193
F0
aF1
a(lp6194
Vauto
p6195
aVauto
p6196
aF0
aF0
aF0
aF0
aaaaa(lp6197
VscaleZ
p6198
a(lp6199
(lp6200
F0
aF1.0000000000000002
a(lp6201
Vauto
p6202
aVauto
p6203
aF0
aF0
aF0
aF0
aaaaa(lp6204
Vspace_world
p6205
a(lp6206
(lp6207
F0
aF0
a(lp6208
Vauto
p6209
aVauto
p6210
aF0
aF0
aF0
aF0
aaaaaaaaa(lp6211
Vindex_ik_ctrl_r_grp_space_switcher
p6212
a(lp6213
(lp6214
Na(lp6215
(lp6216
Vvisibility
p6217
a(lp6218
(lp6219
F0
aF1
a(lp6220
Vspline
p6221
aVstep
p6222
aF0
aF0
aF0
aF0
aaaaa(lp6223
VtranslateX
p6224
a(lp6225
(lp6226
F0
aF-1.7763568394002505e-15
a(lp6227
Vauto
p6228
aVauto
p6229
aF0
aF0
aF0
aF0
aaaaa(lp6230
VtranslateY
p6231
a(lp6232
(lp6233
F0
aF-4.4408920985006262e-16
a(lp6234
Vauto
p6235
aVauto
p6236
aF0
aF0
aF0
aF0
aaaaa(lp6237
VtranslateZ
p6238
a(lp6239
(lp6240
F0
aF-8.8817841970012523e-16
a(lp6241
Vauto
p6242
aVauto
p6243
aF0
aF0
aF0
aF0
aaaaa(lp6244
VrotateX
p6245
a(lp6246
(lp6247
F0
aF-9.9392333795734899e-17
a(lp6248
Vauto
p6249
aVauto
p6250
aF0
aF0
aF0
aF0
aaaaa(lp6251
VrotateY
p6252
a(lp6253
(lp6254
F0
aF6.2120208622334312e-17
a(lp6255
Vauto
p6256
aVauto
p6257
aF0
aF0
aF0
aF0
aaaaa(lp6258
VrotateZ
p6259
a(lp6260
(lp6261
F0
aF7.9513867036587919e-16
a(lp6262
Vauto
p6263
aVauto
p6264
aF0
aF0
aF0
aF0
aaaaa(lp6265
VscaleX
p6266
a(lp6267
(lp6268
F0
aF1
a(lp6269
Vauto
p6270
aVauto
p6271
aF0
aF0
aF0
aF0
aaaaa(lp6272
VscaleY
p6273
a(lp6274
(lp6275
F0
aF1
a(lp6276
Vauto
p6277
aVauto
p6278
aF0
aF0
aF0
aF0
aaaaa(lp6279
VscaleZ
p6280
a(lp6281
(lp6282
F0
aF1
a(lp6283
Vauto
p6284
aVauto
p6285
aF0
aF0
aF0
aF0
aaaaa(lp6286
Vspace_world
p6287
a(lp6288
(lp6289
F0
aF0
a(lp6290
Vauto
p6291
aVauto
p6292
aF0
aF0
aF0
aF0
aaaaaaaaa(lp6293
Vl_global_ik_anim_space_switcher
p6294
a(lp6295
(lp6296
Na(lp6297
(lp6298
Vvisibility
p6299
a(lp6300
(lp6301
F0
aF1
a(lp6302
Vspline
p6303
aVstep
p6304
aF0
aF0
aF0
aF0
aaaaa(lp6305
VtranslateX
p6306
a(lp6307
(lp6308
F0
aF0
a(lp6309
Vauto
p6310
aVauto
p6311
aF0
aF0
aF0
aF0
aaaaa(lp6312
VtranslateY
p6313
a(lp6314
(lp6315
F0
aF0
a(lp6316
Vauto
p6317
aVauto
p6318
aF0
aF0
aF0
aF0
aaaaa(lp6319
VtranslateZ
p6320
a(lp6321
(lp6322
F0
aF0
a(lp6323
Vauto
p6324
aVauto
p6325
aF0
aF0
aF0
aF0
aaaaa(lp6326
VrotateX
p6327
a(lp6328
(lp6329
F0
aF0
a(lp6330
Vauto
p6331
aVauto
p6332
aF0
aF0
aF0
aF0
aaaaa(lp6333
VrotateY
p6334
a(lp6335
(lp6336
F0
aF0
a(lp6337
Vauto
p6338
aVauto
p6339
aF0
aF0
aF0
aF0
aaaaa(lp6340
VrotateZ
p6341
a(lp6342
(lp6343
F0
aF0
a(lp6344
Vauto
p6345
aVauto
p6346
aF0
aF0
aF0
aF0
aaaaa(lp6347
VscaleX
p6348
a(lp6349
(lp6350
F0
aF1
a(lp6351
Vauto
p6352
aVauto
p6353
aF0
aF0
aF0
aF0
aaaaa(lp6354
VscaleY
p6355
a(lp6356
(lp6357
F0
aF1
a(lp6358
Vauto
p6359
aVauto
p6360
aF0
aF0
aF0
aF0
aaaaa(lp6361
VscaleZ
p6362
a(lp6363
(lp6364
F0
aF1
a(lp6365
Vauto
p6366
aVauto
p6367
aF0
aF0
aF0
aF0
aaaaa(lp6368
Vspace_world
p6369
a(lp6370
(lp6371
F0
aF0
a(lp6372
Vauto
p6373
aVauto
p6374
aF0
aF0
aF0
aF0
aaaaaaaaa(lp6375
Vmaster_anim_space_switcher
p6376
a(lp6377
(lp6378
Na(lp6379
(lp6380
Vvisibility
p6381
a(lp6382
(lp6383
F0
aF1
a(lp6384
Vspline
p6385
aVstep
p6386
aF0
aF0
aF0
aF0
aaaaa(lp6387
VtranslateX
p6388
a(lp6389
(lp6390
F0
aF0
a(lp6391
Vauto
p6392
aVauto
p6393
aF0
aF0
aF0
aF0
aaaaa(lp6394
VtranslateY
p6395
a(lp6396
(lp6397
F0
aF0
a(lp6398
Vauto
p6399
aVauto
p6400
aF0
aF0
aF0
aF0
aaaaa(lp6401
VtranslateZ
p6402
a(lp6403
(lp6404
F0
aF0
a(lp6405
Vauto
p6406
aVauto
p6407
aF0
aF0
aF0
aF0
aaaaa(lp6408
VrotateX
p6409
a(lp6410
(lp6411
F0
aF0
a(lp6412
Vauto
p6413
aVauto
p6414
aF0
aF0
aF0
aF0
aaaaa(lp6415
VrotateY
p6416
a(lp6417
(lp6418
F0
aF0
a(lp6419
Vauto
p6420
aVauto
p6421
aF0
aF0
aF0
aF0
aaaaa(lp6422
VrotateZ
p6423
a(lp6424
(lp6425
F0
aF0
a(lp6426
Vauto
p6427
aVauto
p6428
aF0
aF0
aF0
aF0
aaaaa(lp6429
VscaleX
p6430
a(lp6431
(lp6432
F0
aF1
a(lp6433
Vauto
p6434
aVauto
p6435
aF0
aF0
aF0
aF0
aaaaa(lp6436
VscaleY
p6437
a(lp6438
(lp6439
F0
aF1
a(lp6440
Vauto
p6441
aVauto
p6442
aF0
aF0
aF0
aF0
aaaaa(lp6443
VscaleZ
p6444
a(lp6445
(lp6446
F0
aF1
a(lp6447
Vauto
p6448
aVauto
p6449
aF0
aF0
aF0
aF0
aaaaa(lp6450
Vspace_world
p6451
a(lp6452
(lp6453
F0
aF0
a(lp6454
Vauto
p6455
aVauto
p6456
aF0
aF0
aF0
aF0
aaaaaaaaa(lp6457
Vmiddle_ik_ctrl_l_grp_space_switcher
p6458
a(lp6459
(lp6460
Na(lp6461
(lp6462
Vvisibility
p6463
a(lp6464
(lp6465
F0
aF1
a(lp6466
Vspline
p6467
aVstep
p6468
aF0
aF0
aF0
aF0
aaaaa(lp6469
VtranslateX
p6470
a(lp6471
(lp6472
F0
aF0
a(lp6473
Vauto
p6474
aVauto
p6475
aF0
aF0
aF0
aF0
aaaaa(lp6476
VtranslateY
p6477
a(lp6478
(lp6479
F0
aF8.8817841970012523e-16
a(lp6480
Vauto
p6481
aVauto
p6482
aF0
aF0
aF0
aF0
aaaaa(lp6483
VtranslateZ
p6484
a(lp6485
(lp6486
F0
aF1.7763568394002505e-15
a(lp6487
Vauto
p6488
aVauto
p6489
aF0
aF0
aF0
aF0
aaaaa(lp6490
VrotateX
p6491
a(lp6492
(lp6493
F0
aF9.9392333795734899e-17
a(lp6494
Vauto
p6495
aVauto
p6496
aF0
aF0
aF0
aF0
aaaaa(lp6497
VrotateY
p6498
a(lp6499
(lp6500
F0
aF-3.8514529345847282e-16
a(lp6501
Vauto
p6502
aVauto
p6503
aF0
aF0
aF0
aF0
aaaaa(lp6504
VrotateZ
p6505
a(lp6506
(lp6507
F0
aF3.1805546814635176e-15
a(lp6508
Vauto
p6509
aVauto
p6510
aF0
aF0
aF0
aF0
aaaaa(lp6511
VscaleX
p6512
a(lp6513
(lp6514
F0
aF0.99999999999999989
a(lp6515
Vauto
p6516
aVauto
p6517
aF0
aF0
aF0
aF0
aaaaa(lp6518
VscaleY
p6519
a(lp6520
(lp6521
F0
aF1
a(lp6522
Vauto
p6523
aVauto
p6524
aF0
aF0
aF0
aF0
aaaaa(lp6525
VscaleZ
p6526
a(lp6527
(lp6528
F0
aF1
a(lp6529
Vauto
p6530
aVauto
p6531
aF0
aF0
aF0
aF0
aaaaa(lp6532
Vspace_world
p6533
a(lp6534
(lp6535
F0
aF0
a(lp6536
Vauto
p6537
aVauto
p6538
aF0
aF0
aF0
aF0
aaaaaaaaa(lp6539
Vmiddle_ik_ctrl_r_grp_space_switcher
p6540
a(lp6541
(lp6542
Na(lp6543
(lp6544
Vvisibility
p6545
a(lp6546
(lp6547
F0
aF1
a(lp6548
Vspline
p6549
aVstep
p6550
aF0
aF0
aF0
aF0
aaaaa(lp6551
VtranslateX
p6552
a(lp6553
(lp6554
F0
aF0
a(lp6555
Vauto
p6556
aVauto
p6557
aF0
aF0
aF0
aF0
aaaaa(lp6558
VtranslateY
p6559
a(lp6560
(lp6561
F0
aF8.8817841970012523e-16
a(lp6562
Vauto
p6563
aVauto
p6564
aF0
aF0
aF0
aF0
aaaaa(lp6565
VtranslateZ
p6566
a(lp6567
(lp6568
F0
aF8.8817841970012523e-16
a(lp6569
Vauto
p6570
aVauto
p6571
aF0
aF0
aF0
aF0
aaaaa(lp6572
VrotateX
p6573
a(lp6574
(lp6575
F0
aF-4.9696166897867449e-17
a(lp6576
Vauto
p6577
aVauto
p6578
aF0
aF0
aF0
aF0
aaaaa(lp6579
VrotateY
p6580
a(lp6581
(lp6582
F0
aF5.3423379415207502e-16
a(lp6583
Vauto
p6584
aVauto
p6585
aF0
aF0
aF0
aF0
aaaaa(lp6586
VrotateZ
p6587
a(lp6588
(lp6589
F0
aF0
a(lp6590
Vauto
p6591
aVauto
p6592
aF0
aF0
aF0
aF0
aaaaa(lp6593
VscaleX
p6594
a(lp6595
(lp6596
F0
aF1.0000000000000002
a(lp6597
Vauto
p6598
aVauto
p6599
aF0
aF0
aF0
aF0
aaaaa(lp6600
VscaleY
p6601
a(lp6602
(lp6603
F0
aF1
a(lp6604
Vauto
p6605
aVauto
p6606
aF0
aF0
aF0
aF0
aaaaa(lp6607
VscaleZ
p6608
a(lp6609
(lp6610
F0
aF1.0000000000000002
a(lp6611
Vauto
p6612
aVauto
p6613
aF0
aF0
aF0
aF0
aaaaa(lp6614
Vspace_world
p6615
a(lp6616
(lp6617
F0
aF0
a(lp6618
Vauto
p6619
aVauto
p6620
aF0
aF0
aF0
aF0
aaaaaaaaa(lp6621
Vr_global_ik_anim_space_switcher
p6622
a(lp6623
(lp6624
Na(lp6625
(lp6626
Vvisibility
p6627
a(lp6628
(lp6629
F0
aF1
a(lp6630
Vspline
p6631
aVstep
p6632
aF0
aF0
aF0
aF0
aaaaa(lp6633
VtranslateX
p6634
a(lp6635
(lp6636
F0
aF0
a(lp6637
Vauto
p6638
aVauto
p6639
aF0
aF0
aF0
aF0
aaaaa(lp6640
VtranslateY
p6641
a(lp6642
(lp6643
F0
aF0
a(lp6644
Vauto
p6645
aVauto
p6646
aF0
aF0
aF0
aF0
aaaaa(lp6647
VtranslateZ
p6648
a(lp6649
(lp6650
F0
aF0
a(lp6651
Vauto
p6652
aVauto
p6653
aF0
aF0
aF0
aF0
aaaaa(lp6654
VrotateX
p6655
a(lp6656
(lp6657
F0
aF0
a(lp6658
Vauto
p6659
aVauto
p6660
aF0
aF0
aF0
aF0
aaaaa(lp6661
VrotateY
p6662
a(lp6663
(lp6664
F0
aF0
a(lp6665
Vauto
p6666
aVauto
p6667
aF0
aF0
aF0
aF0
aaaaa(lp6668
VrotateZ
p6669
a(lp6670
(lp6671
F0
aF0
a(lp6672
Vauto
p6673
aVauto
p6674
aF0
aF0
aF0
aF0
aaaaa(lp6675
VscaleX
p6676
a(lp6677
(lp6678
F0
aF1
a(lp6679
Vauto
p6680
aVauto
p6681
aF0
aF0
aF0
aF0
aaaaa(lp6682
VscaleY
p6683
a(lp6684
(lp6685
F0
aF1
a(lp6686
Vauto
p6687
aVauto
p6688
aF0
aF0
aF0
aF0
aaaaa(lp6689
VscaleZ
p6690
a(lp6691
(lp6692
F0
aF1
a(lp6693
Vauto
p6694
aVauto
p6695
aF0
aF0
aF0
aF0
aaaaa(lp6696
Vspace_world
p6697
a(lp6698
(lp6699
F0
aF0
a(lp6700
Vauto
p6701
aVauto
p6702
aF0
aF0
aF0
aF0
aaaaaaaaa(lp6703
Vring_ik_ctrl_l_grp_space_switcher
p6704
a(lp6705
(lp6706
Na(lp6707
(lp6708
Vvisibility
p6709
a(lp6710
(lp6711
F0
aF1
a(lp6712
Vspline
p6713
aVstep
p6714
aF0
aF0
aF0
aF0
aaaaa(lp6715
VtranslateX
p6716
a(lp6717
(lp6718
F0
aF0
a(lp6719
Vauto
p6720
aVauto
p6721
aF0
aF0
aF0
aF0
aaaaa(lp6722
VtranslateY
p6723
a(lp6724
(lp6725
F0
aF0
a(lp6726
Vauto
p6727
aVauto
p6728
aF0
aF0
aF0
aF0
aaaaa(lp6729
VtranslateZ
p6730
a(lp6731
(lp6732
F0
aF0
a(lp6733
Vauto
p6734
aVauto
p6735
aF0
aF0
aF0
aF0
aaaaa(lp6736
VrotateX
p6737
a(lp6738
(lp6739
F0
aF0
a(lp6740
Vauto
p6741
aVauto
p6742
aF0
aF0
aF0
aF0
aaaaa(lp6743
VrotateY
p6744
a(lp6745
(lp6746
F0
aF9.9392333795734899e-17
a(lp6747
Vauto
p6748
aVauto
p6749
aF0
aF0
aF0
aF0
aaaaa(lp6750
VrotateZ
p6751
a(lp6752
(lp6753
F0
aF-1.5902773407317584e-15
a(lp6754
Vauto
p6755
aVauto
p6756
aF0
aF0
aF0
aF0
aaaaa(lp6757
VscaleX
p6758
a(lp6759
(lp6760
F0
aF1
a(lp6761
Vauto
p6762
aVauto
p6763
aF0
aF0
aF0
aF0
aaaaa(lp6764
VscaleY
p6765
a(lp6766
(lp6767
F0
aF1
a(lp6768
Vauto
p6769
aVauto
p6770
aF0
aF0
aF0
aF0
aaaaa(lp6771
VscaleZ
p6772
a(lp6773
(lp6774
F0
aF1
a(lp6775
Vauto
p6776
aVauto
p6777
aF0
aF0
aF0
aF0
aaaaa(lp6778
Vspace_world
p6779
a(lp6780
(lp6781
F0
aF0
a(lp6782
Vauto
p6783
aVauto
p6784
aF0
aF0
aF0
aF0
aaaaaaaaa(lp6785
Vring_ik_ctrl_r_grp_space_switcher
p6786
a(lp6787
(lp6788
Na(lp6789
(lp6790
Vvisibility
p6791
a(lp6792
(lp6793
F0
aF1
a(lp6794
Vspline
p6795
aVstep
p6796
aF0
aF0
aF0
aF0
aaaaa(lp6797
VtranslateX
p6798
a(lp6799
(lp6800
F0
aF0
a(lp6801
Vauto
p6802
aVauto
p6803
aF0
aF0
aF0
aF0
aaaaa(lp6804
VtranslateY
p6805
a(lp6806
(lp6807
F0
aF0
a(lp6808
Vauto
p6809
aVauto
p6810
aF0
aF0
aF0
aF0
aaaaa(lp6811
VtranslateZ
p6812
a(lp6813
(lp6814
F0
aF-1.7763568394002505e-15
a(lp6815
Vauto
p6816
aVauto
p6817
aF0
aF0
aF0
aF0
aaaaa(lp6818
VrotateX
p6819
a(lp6820
(lp6821
F0
aF4.9696166897867437e-17
a(lp6822
Vauto
p6823
aVauto
p6824
aF0
aF0
aF0
aF0
aaaaa(lp6825
VrotateY
p6826
a(lp6827
(lp6828
F0
aF-1.0560435465796834e-16
a(lp6829
Vauto
p6830
aVauto
p6831
aF0
aF0
aF0
aF0
aaaaa(lp6832
VrotateZ
p6833
a(lp6834
(lp6835
F0
aF-1.5902773407317584e-15
a(lp6836
Vauto
p6837
aVauto
p6838
aF0
aF0
aF0
aF0
aaaaa(lp6839
VscaleX
p6840
a(lp6841
(lp6842
F0
aF1
a(lp6843
Vauto
p6844
aVauto
p6845
aF0
aF0
aF0
aF0
aaaaa(lp6846
VscaleY
p6847
a(lp6848
(lp6849
F0
aF1.0000000000000002
a(lp6850
Vauto
p6851
aVauto
p6852
aF0
aF0
aF0
aF0
aaaaa(lp6853
VscaleZ
p6854
a(lp6855
(lp6856
F0
aF1
a(lp6857
Vauto
p6858
aVauto
p6859
aF0
aF0
aF0
aF0
aaaaa(lp6860
Vspace_world
p6861
a(lp6862
(lp6863
F0
aF0
a(lp6864
Vauto
p6865
aVauto
p6866
aF0
aF0
aF0
aF0
aaaaaaaaa(lp6867
Vspine_01_space_switcher
p6868
a(lp6869
(lp6870
Na(lp6871
(lp6872
Vvisibility
p6873
a(lp6874
(lp6875
F0
aF1
a(lp6876
Vspline
p6877
aVstep
p6878
aF0
aF0
aF0
aF0
aaaaa(lp6879
VtranslateX
p6880
a(lp6881
(lp6882
F0
aF0
a(lp6883
Vauto
p6884
aVauto
p6885
aF0
aF0
aF0
aF0
aaaaa(lp6886
VtranslateY
p6887
a(lp6888
(lp6889
F0
aF0
a(lp6890
Vauto
p6891
aVauto
p6892
aF0
aF0
aF0
aF0
aaaaa(lp6893
VtranslateZ
p6894
a(lp6895
(lp6896
F0
aF1.2621774483536189e-29
a(lp6897
Vauto
p6898
aVauto
p6899
aF0
aF0
aF0
aF0
aaaaa(lp6900
VrotateX
p6901
a(lp6902
(lp6903
F0
aF0
a(lp6904
Vauto
p6905
aVauto
p6906
aF0
aF0
aF0
aF0
aaaaa(lp6907
VrotateY
p6908
a(lp6909
(lp6910
F0
aF-5.649800061504203e-30
a(lp6911
Vauto
p6912
aVauto
p6913
aF0
aF0
aF0
aF0
aaaaa(lp6914
VrotateZ
p6915
a(lp6916
(lp6917
F0
aF0
a(lp6918
Vauto
p6919
aVauto
p6920
aF0
aF0
aF0
aF0
aaaaa(lp6921
VscaleX
p6922
a(lp6923
(lp6924
F0
aF1
a(lp6925
Vauto
p6926
aVauto
p6927
aF0
aF0
aF0
aF0
aaaaa(lp6928
VscaleY
p6929
a(lp6930
(lp6931
F0
aF1
a(lp6932
Vauto
p6933
aVauto
p6934
aF0
aF0
aF0
aF0
aaaaa(lp6935
VscaleZ
p6936
a(lp6937
(lp6938
F0
aF1
a(lp6939
Vauto
p6940
aVauto
p6941
aF0
aF0
aF0
aF0
aaaaa(lp6942
Vspace_world
p6943
a(lp6944
(lp6945
F0
aF0
a(lp6946
Vauto
p6947
aVauto
p6948
aF0
aF0
aF0
aF0
aaaaaaaaa(lp6949
S'chest_ik_world_aligned'
p6950
a(lp6951
(lp6952
Na(lp6953
aaaa(lp6954
S'fk_orient_world_loc_l'
p6955
a(lp6956
(lp6957
Na(lp6958
(lp6959
Vvisibility
p6960
a(lp6961
(lp6962
F0
aF1
a(lp6963
Vspline
p6964
aVstep
p6965
aF0
aF0
aF0
aF0
aaaaa(lp6966
VtranslateX
p6967
a(lp6968
(lp6969
F0
aF15.70901527190424
a(lp6970
Vauto
p6971
aVauto
p6972
aF0
aF0
aF0
aF0
aaaaa(lp6973
VtranslateY
p6974
a(lp6975
(lp6976
F0
aF5.02771676107327
a(lp6977
Vauto
p6978
aVauto
p6979
aF0
aF0
aF0
aF0
aaaaa(lp6980
VtranslateZ
p6981
a(lp6982
(lp6983
F0
aF140.17686079342991
a(lp6984
Vauto
p6985
aVauto
p6986
aF0
aF0
aF0
aF0
aaaaa(lp6987
VrotateX
p6988
a(lp6989
(lp6990
F0
aF0.52160574912245161
a(lp6991
Vauto
p6992
aVauto
p6993
aF0
aF0
aF0
aF0
aaaaa(lp6994
VrotateY
p6995
a(lp6996
(lp6997
F0
aF-0
a(lp6998
Vauto
p6999
aVauto
p7000
aF0
aF0
aF0
aF0
aaaaa(lp7001
VrotateZ
p7002
a(lp7003
(lp7004
F0
aF0
a(lp7005
Vauto
p7006
aVauto
p7007
aF0
aF0
aF0
aF0
aaaaa(lp7008
VscaleX
p7009
a(lp7010
(lp7011
F0
aF1
a(lp7012
Vauto
p7013
aVauto
p7014
aF0
aF0
aF0
aF0
aaaaa(lp7015
VscaleY
p7016
a(lp7017
(lp7018
F0
aF1
a(lp7019
Vauto
p7020
aVauto
p7021
aF0
aF0
aF0
aF0
aaaaa(lp7022
VscaleZ
p7023
a(lp7024
(lp7025
F0
aF1
a(lp7026
Vauto
p7027
aVauto
p7028
aF0
aF0
aF0
aF0
aaaaaaaaa(lp7029
S'fk_orient_world_loc_r'
p7030
a(lp7031
(lp7032
Na(lp7033
(lp7034
Vvisibility
p7035
a(lp7036
(lp7037
F0
aF1
a(lp7038
Vspline
p7039
aVstep
p7040
aF0
aF0
aF0
aF0
aaaaa(lp7041
VtranslateX
p7042
a(lp7043
(lp7044
F0
aF-15.709000000000035
a(lp7045
Vauto
p7046
aVauto
p7047
aF0
aF0
aF0
aF0
aaaaa(lp7048
VtranslateY
p7049
a(lp7050
(lp7051
F0
aF5.0277003917744194
a(lp7052
Vauto
p7053
aVauto
p7054
aF0
aF0
aF0
aF0
aaaaa(lp7055
VtranslateZ
p7056
a(lp7057
(lp7058
F0
aF140.17697512254779
a(lp7059
Vauto
p7060
aVauto
p7061
aF0
aF0
aF0
aF0
aaaaa(lp7062
VrotateX
p7063
a(lp7064
(lp7065
F0
aF-179.47839425087759
a(lp7066
Vauto
p7067
aVauto
p7068
aF0
aF0
aF0
aF0
aaaaa(lp7069
VrotateY
p7070
a(lp7071
(lp7072
F0
aF0
a(lp7073
Vauto
p7074
aVauto
p7075
aF0
aF0
aF0
aF0
aaaaa(lp7076
VrotateZ
p7077
a(lp7078
(lp7079
F0
aF0
a(lp7080
Vauto
p7081
aVauto
p7082
aF0
aF0
aF0
aF0
aaaaa(lp7083
VscaleX
p7084
a(lp7085
(lp7086
F0
aF1
a(lp7087
Vauto
p7088
aVauto
p7089
aF0
aF0
aF0
aF0
aaaaa(lp7090
VscaleY
p7091
a(lp7092
(lp7093
F0
aF1
a(lp7094
Vauto
p7095
aVauto
p7096
aF0
aF0
aF0
aF0
aaaaa(lp7097
VscaleZ
p7098
a(lp7099
(lp7100
F0
aF1
a(lp7101
Vauto
p7102
aVauto
p7103
aF0
aF0
aF0
aF0
aaaaaaaaa(lp7104
S'fk_orient_body_loc_l'
p7105
a(lp7106
(lp7107
Na(lp7108
(lp7109
Vvisibility
p7110
a(lp7111
(lp7112
F0
aF1
a(lp7113
Vspline
p7114
aVstep
p7115
aF0
aF0
aF0
aF0
aaaaa(lp7116
VtranslateX
p7117
a(lp7118
(lp7119
F0
aF44.444896743556285
a(lp7120
Vauto
p7121
aVauto
p7122
aF0
aF0
aF0
aF0
aaaaa(lp7123
VtranslateY
p7124
a(lp7125
(lp7126
F0
aF3.9781349213210024
a(lp7127
Vauto
p7128
aVauto
p7129
aF0
aF0
aF0
aF0
aaaaa(lp7130
VtranslateZ
p7131
a(lp7132
(lp7133
F0
aF-15.70901527190423
a(lp7134
Vauto
p7135
aVauto
p7136
aF0
aF0
aF0
aF0
aaaaa(lp7137
VrotateX
p7138
a(lp7139
(lp7140
F0
aF0.52160574912244251
a(lp7141
Vauto
p7142
aVauto
p7143
aF0
aF0
aF0
aF0
aaaaa(lp7144
VrotateY
p7145
a(lp7146
(lp7147
F0
aF90
a(lp7148
Vauto
p7149
aVauto
p7150
aF0
aF0
aF0
aF0
aaaaa(lp7151
VrotateZ
p7152
a(lp7153
(lp7154
F0
aF0
a(lp7155
Vauto
p7156
aVauto
p7157
aF0
aF0
aF0
aF0
aaaaa(lp7158
VscaleX
p7159
a(lp7160
(lp7161
F0
aF1
a(lp7162
Vauto
p7163
aVauto
p7164
aF0
aF0
aF0
aF0
aaaaa(lp7165
VscaleY
p7166
a(lp7167
(lp7168
F0
aF1
a(lp7169
Vauto
p7170
aVauto
p7171
aF0
aF0
aF0
aF0
aaaaa(lp7172
VscaleZ
p7173
a(lp7174
(lp7175
F0
aF1
a(lp7176
Vauto
p7177
aVauto
p7178
aF0
aF0
aF0
aF0
aaaaaaaaa(lp7179
S'fk_orient_body_loc_r'
p7180
a(lp7181
(lp7182
Na(lp7183
(lp7184
Vvisibility
p7185
a(lp7186
(lp7187
F0
aF1
a(lp7188
Vspline
p7189
aVstep
p7190
aF0
aF0
aF0
aF0
aaaaa(lp7191
VtranslateX
p7192
a(lp7193
(lp7194
F0
aF44.445011072674163
a(lp7195
Vauto
p7196
aVauto
p7197
aF0
aF0
aF0
aF0
aaaaa(lp7198
VtranslateY
p7199
a(lp7200
(lp7201
F0
aF3.9781185520221518
a(lp7202
Vauto
p7203
aVauto
p7204
aF0
aF0
aF0
aF0
aaaaa(lp7205
VtranslateZ
p7206
a(lp7207
(lp7208
F0
aF15.709000000000046
a(lp7209
Vauto
p7210
aVauto
p7211
aF0
aF0
aF0
aF0
aaaaa(lp7212
VrotateX
p7213
a(lp7214
(lp7215
F0
aF-179.47839425087759
a(lp7216
Vauto
p7217
aVauto
p7218
aF0
aF0
aF0
aF0
aaaaa(lp7219
VrotateY
p7220
a(lp7221
(lp7222
F0
aF90
a(lp7223
Vauto
p7224
aVauto
p7225
aF0
aF0
aF0
aF0
aaaaa(lp7226
VrotateZ
p7227
a(lp7228
(lp7229
F0
aF0
a(lp7230
Vauto
p7231
aVauto
p7232
aF0
aF0
aF0
aF0
aaaaa(lp7233
VscaleX
p7234
a(lp7235
(lp7236
F0
aF1
a(lp7237
Vauto
p7238
aVauto
p7239
aF0
aF0
aF0
aF0
aaaaa(lp7240
VscaleY
p7241
a(lp7242
(lp7243
F0
aF1
a(lp7244
Vauto
p7245
aVauto
p7246
aF0
aF0
aF0
aF0
aaaaa(lp7247
VscaleZ
p7248
a(lp7249
(lp7250
F0
aF1
a(lp7251
Vauto
p7252
aVauto
p7253
aF0
aF0
aF0
aF0
aaaaaaaaa(lp7254
S'head_fk_orient_neck'
p7255
a(lp7256
(lp7257
Na(lp7258
(lp7259
Vvisibility
p7260
a(lp7261
(lp7262
F0
aF1
a(lp7263
Vspline
p7264
aVstep
p7265
aF0
aF0
aF0
aF0
aaaaa(lp7266
VtranslateX
p7267
a(lp7268
(lp7269
F0
aF3.7858245654211089
a(lp7270
Vauto
p7271
aVauto
p7272
aF0
aF0
aF0
aF0
aaaaa(lp7273
VtranslateY
p7274
a(lp7275
(lp7276
F0
aF-0.090718376561504499
a(lp7277
Vauto
p7278
aVauto
p7279
aF0
aF0
aF0
aF0
aaaaa(lp7280
VtranslateZ
p7281
a(lp7282
(lp7283
F0
aF2.8341083585330194e-15
a(lp7284
Vauto
p7285
aVauto
p7286
aF0
aF0
aF0
aF0
aaaaa(lp7287
VrotateX
p7288
a(lp7289
(lp7290
F0
aF-5.253245120426134e-15
a(lp7291
Vauto
p7292
aVauto
p7293
aF0
aF0
aF0
aF0
aaaaa(lp7294
VrotateY
p7295
a(lp7296
(lp7297
F0
aF9.8487145190020946e-17
a(lp7298
Vauto
p7299
aVauto
p7300
aF0
aF0
aF0
aF0
aaaaa(lp7301
VrotateZ
p7302
a(lp7303
(lp7304
F0
aF13.202170317130344
a(lp7305
Vauto
p7306
aVauto
p7307
aF0
aF0
aF0
aF0
aaaaa(lp7308
VscaleX
p7309
a(lp7310
(lp7311
F0
aF1
a(lp7312
Vauto
p7313
aVauto
p7314
aF0
aF0
aF0
aF0
aaaaa(lp7315
VscaleY
p7316
a(lp7317
(lp7318
F0
aF1
a(lp7319
Vauto
p7320
aVauto
p7321
aF0
aF0
aF0
aF0
aaaaa(lp7322
VscaleZ
p7323
a(lp7324
(lp7325
F0
aF1
a(lp7326
Vauto
p7327
aVauto
p7328
aF0
aF0
aF0
aF0
aaaaaaaaa(lp7329
S'head_fk_orient_shoulder'
p7330
a(lp7331
(lp7332
Na(lp7333
(lp7334
Vvisibility
p7335
a(lp7336
(lp7337
F0
aF1
a(lp7338
Vspline
p7339
aVstep
p7340
aF0
aF0
aF0
aF0
aaaaa(lp7341
VtranslateX
p7342
a(lp7343
(lp7344
F0
aF30.514486613135659
a(lp7345
Vauto
p7346
aVauto
p7347
aF0
aF0
aF0
aF0
aaaaa(lp7348
VtranslateY
p7349
a(lp7350
(lp7351
F0
aF-4.3647424283527663
a(lp7352
Vauto
p7353
aVauto
p7354
aF0
aF0
aF0
aF0
aaaaa(lp7355
VtranslateZ
p7356
a(lp7357
(lp7358
F0
aF3.262709609385664e-14
a(lp7359
Vauto
p7360
aVauto
p7361
aF0
aF0
aF0
aF0
aaaaa(lp7362
VrotateX
p7363
a(lp7364
(lp7365
F0
aF-1.6189655092994698e-16
a(lp7366
Vauto
p7367
aVauto
p7368
aF0
aF0
aF0
aF0
aaaaa(lp7369
VrotateY
p7370
a(lp7371
(lp7372
F0
aF1.2725500998468247e-14
a(lp7373
Vauto
p7374
aVauto
p7375
aF0
aF0
aF0
aF0
aaaaa(lp7376
VrotateZ
p7377
a(lp7378
(lp7379
F0
aF-8.1594412142500286
a(lp7380
Vauto
p7381
aVauto
p7382
aF0
aF0
aF0
aF0
aaaaa(lp7383
VscaleX
p7384
a(lp7385
(lp7386
F0
aF1
a(lp7387
Vauto
p7388
aVauto
p7389
aF0
aF0
aF0
aF0
aaaaa(lp7390
VscaleY
p7391
a(lp7392
(lp7393
F0
aF0.99999999999999989
a(lp7394
Vauto
p7395
aVauto
p7396
aF0
aF0
aF0
aF0
aaaaa(lp7397
VscaleZ
p7398
a(lp7399
(lp7400
F0
aF1
a(lp7401
Vauto
p7402
aVauto
p7403
aF0
aF0
aF0
aF0
aaaaaaaaa(lp7404
S'head_fk_orient_body'
p7405
a(lp7406
(lp7407
Na(lp7408
(lp7409
Vvisibility
p7410
a(lp7411
(lp7412
F0
aF1
a(lp7413
Vspline
p7414
aVstep
p7415
aF0
aF0
aF0
aF0
aaaaa(lp7416
VtranslateX
p7417
a(lp7418
(lp7419
F0
aF65.426761266762981
a(lp7420
Vauto
p7421
aVauto
p7422
aF0
aF0
aF0
aF0
aaaaa(lp7423
VtranslateY
p7424
a(lp7425
(lp7426
F0
aF-0.28183320459197403
a(lp7427
Vauto
p7428
aVauto
p7429
aF0
aF0
aF0
aF0
aaaaa(lp7430
VtranslateZ
p7431
a(lp7432
(lp7433
F0
aF1.5907601229373439e-14
a(lp7434
Vauto
p7435
aVauto
p7436
aF0
aF0
aF0
aF0
aaaaa(lp7437
VrotateX
p7438
a(lp7439
(lp7440
F0
aF2.4848083448933725e-16
a(lp7441
Vauto
p7442
aVauto
p7443
aF0
aF0
aF0
aF0
aaaaa(lp7444
VrotateY
p7445
a(lp7446
(lp7447
F0
aF3.8166656177562201e-14
a(lp7448
Vauto
p7449
aVauto
p7450
aF0
aF0
aF0
aF0
aaaaa(lp7451
VrotateZ
p7452
a(lp7453
(lp7454
F0
aF0.79977622689058869
a(lp7455
Vauto
p7456
aVauto
p7457
aF0
aF0
aF0
aF0
aaaaa(lp7458
VscaleX
p7459
a(lp7460
(lp7461
F0
aF1
a(lp7462
Vauto
p7463
aVauto
p7464
aF0
aF0
aF0
aF0
aaaaa(lp7465
VscaleY
p7466
a(lp7467
(lp7468
F0
aF1
a(lp7469
Vauto
p7470
aVauto
p7471
aF0
aF0
aF0
aF0
aaaaa(lp7472
VscaleZ
p7473
a(lp7474
(lp7475
F0
aF1
a(lp7476
Vauto
p7477
aVauto
p7478
aF0
aF0
aF0
aF0
aaaaaaaaa(lp7479
S'head_fk_orient_world'
p7480
a(lp7481
(lp7482
Na(lp7483
(lp7484
Vvisibility
p7485
a(lp7486
(lp7487
F0
aF1
a(lp7488
Vspline
p7489
aVstep
p7490
aF0
aF0
aF0
aF0
aaaaa(lp7491
VtranslateX
p7492
a(lp7493
(lp7494
F0
aF-5.5093426110811197e-15
a(lp7495
Vauto
p7496
aVauto
p7497
aF0
aF0
aF0
aF0
aaaaa(lp7498
VtranslateY
p7499
a(lp7500
(lp7501
F0
aF0.76774863516029068
a(lp7502
Vauto
p7503
aVauto
p7504
aF0
aF0
aF0
aF0
aaaaa(lp7505
VtranslateZ
p7506
a(lp7507
(lp7508
F0
aF161.15872531663661
a(lp7509
Vauto
p7510
aVauto
p7511
aF0
aF0
aF0
aF0
aaaaa(lp7512
VrotateX
p7513
a(lp7514
(lp7515
F0
aF-89.999999999997726
a(lp7516
Vauto
p7517
aVauto
p7518
aF0
aF0
aF0
aF0
aaaaa(lp7519
VrotateY
p7520
a(lp7521
(lp7522
F0
aF-89.200223773109428
a(lp7523
Vauto
p7524
aVauto
p7525
aF0
aF0
aF0
aF0
aaaaa(lp7526
VrotateZ
p7527
a(lp7528
(lp7529
F0
aF89.999999999997726
a(lp7530
Vauto
p7531
aVauto
p7532
aF0
aF0
aF0
aF0
aaaaa(lp7533
VscaleX
p7534
a(lp7535
(lp7536
F0
aF1
a(lp7537
Vauto
p7538
aVauto
p7539
aF0
aF0
aF0
aF0
aaaaa(lp7540
VscaleY
p7541
a(lp7542
(lp7543
F0
aF1
a(lp7544
Vauto
p7545
aVauto
p7546
aF0
aF0
aF0
aF0
aaaaa(lp7547
VscaleZ
p7548
a(lp7549
(lp7550
F0
aF1
a(lp7551
Vauto
p7552
aVauto
p7553
aF0
aF0
aF0
aF0
aaaaaaaaa.