(lp1
(lp2
S'head_fk_anim'
p3
a(lp4
VtranslateX
p5
aVtranslateY
p6
aVtranslateZ
p7
aVrotateX
p8
aVrotateY
p9
aVrotateZ
p10
aVscaleX
p11
aVscaleY
p12
aVscaleZ
p13
aVfkOrientation
p14
aaF0
aF0
aF0
aF0
aF0
aF0
aF1
aF1
aF1
aI0
aa(lp15
S'neck_01_fk_anim'
p16
a(lp17
VtranslateX
p18
aVtranslateY
p19
aVtranslateZ
p20
aVrotateX
p21
aVrotateY
p22
aVrotateZ
p23
aVscaleX
p24
aVscaleY
p25
aVscaleZ
p26
aVfkOrientation
p27
aaF0
aF0
aF0
aF0
aF5.649800061504203e-30
aF0
aF1
aF1
aF1
aI0
aa(lp28
S'neck_02_fk_anim'
p29
a(lp30
VtranslateX
p31
aVtranslateY
p32
aVtranslateZ
p33
aVrotateX
p34
aVrotateY
p35
aVrotateZ
p36
aVscaleX
p37
aVscaleY
p38
aVscaleZ
p39
aaF0
aF0
aF0
aF0
aF0
aF0
aF1
aF1
aF1
aa(lp40
S'spine_01_anim'
p41
a(lp42
Vlength
p43
aVtranslateY
p44
aVtranslateZ
p45
aVrotateX
p46
aVrotateY
p47
aVrotateZ
p48
aaF0
aF0
aF0
aF0
aF0
aF0
aa(lp49
S'spine_02_anim'
p50
a(lp51
Vlength
p52
aVtranslateY
p53
aVtranslateZ
p54
aVrotateX
p55
aVrotateY
p56
aVrotateZ
p57
aaF0
aF0
aF0
aF0
aF0
aF0
aa(lp58
S'spine_03_anim'
p59
a(lp60
Vlength
p61
aVtranslateY
p62
aVtranslateZ
p63
aVrotateX
p64
aVrotateY
p65
aVrotateZ
p66
aaF0
aF0
aF0
aF0
aF0
aF0
aa(lp67
S'mid_ik_anim'
p68
a(lp69
VtranslateX
p70
aVtranslateY
p71
aVtranslateZ
p72
aVrotateX
p73
aVrotateY
p74
aVrotateZ
p75
aaF0
aF0
aF0
aF0
aF0
aF0
aa(lp76
S'chest_ik_anim'
p77
a(lp78
VtranslateX
p79
aVtranslateY
p80
aVtranslateZ
p81
aVrotateX
p82
aVrotateY
p83
aVrotateZ
p84
aVstretch
p85
aVsquash
p86
aVtwist_amount
p87
aVautoSpine
p88
aVrotationInfluence
p89
aaF0
aF0
aF0
aF0
aF0
aF0
aF0
aF0
aF1
aF0
aF0.25
aa(lp90
S'body_anim'
p91
a(lp92
VtranslateX
p93
aVtranslateY
p94
aVtranslateZ
p95
aVrotateX
p96
aVrotateY
p97
aVrotateZ
p98
aaF0
aF0
aF0
aF0
aF0
aF0
aa(lp99
S'hip_anim'
p100
a(lp101
VtranslateX
p102
aVtranslateY
p103
aVtranslateZ
p104
aVrotateX
p105
aVrotateY
p106
aVrotateZ
p107
aVlTwistCtrlVis
p108
aVlCalfTwistCtrlVis
p109
aVrTwistCtrlVis
p110
aVrCalfTwistCtrlVis
p111
aVautoHips
p112
aaF0
aF0
aF-6.3108872417680944e-30
aF3.7272125173400562e-17
aF-2.5444437451708134e-14
aF4.9696166897867437e-17
aI00
aI00
aI00
aI00
aF0
aa(lp113
S'clavicle_l_anim'
p114
a(lp115
VtranslateX
p116
aVtranslateY
p117
aVtranslateZ
p118
aVautoShoulders
p119
aaF0
aF0
aF0
aF0
aa(lp120
S'clavicle_r_anim'
p121
a(lp122
VtranslateX
p123
aVtranslateY
p124
aVtranslateZ
p125
aVautoShoulders
p126
aaF0
aF0
aF0
aF0
aa(lp127
S'fk_arm_l_anim'
p128
a(lp129
VtranslateX
p130
aVtranslateY
p131
aVtranslateZ
p132
aVrotateX
p133
aVrotateY
p134
aVrotateZ
p135
aaF0
aF0
aF0
aF0
aF0
aF0
aa(lp136
S'fk_arm_r_anim'
p137
a(lp138
VtranslateX
p139
aVtranslateY
p140
aVtranslateZ
p141
aVrotateX
p142
aVrotateY
p143
aVrotateZ
p144
aaF0
aF0
aF0
aF0
aF0
aF0
aa(lp145
S'fk_elbow_l_anim'
p146
a(lp147
VtranslateX
p148
aVtranslateY
p149
aVtranslateZ
p150
aVrotateX
p151
aVrotateY
p152
aVrotateZ
p153
aaF0
aF0
aF0
aF0
aF0
aF0
aa(lp154
S'fk_elbow_r_anim'
p155
a(lp156
VtranslateX
p157
aVtranslateY
p158
aVtranslateZ
p159
aVrotateX
p160
aVrotateY
p161
aVrotateZ
p162
aaF0
aF0
aF0
aF0
aF0
aF0
aa(lp163
S'fk_wrist_l_anim'
p164
a(lp165
VtranslateX
p166
aVtranslateY
p167
aVtranslateZ
p168
aVrotateX
p169
aVrotateY
p170
aVrotateZ
p171
aaF0
aF0
aF0
aF0
aF0
aF0
aa(lp172
S'fk_wrist_r_anim'
p173
a(lp174
VtranslateX
p175
aVtranslateY
p176
aVtranslateZ
p177
aVrotateX
p178
aVrotateY
p179
aVrotateZ
p180
aaF0
aF0
aF0
aF0
aF0
aF0
aa(lp181
S'ik_elbow_l_anim'
p182
a(lp183
VtranslateX
p184
aVtranslateY
p185
aVtranslateZ
p186
aaF-23.234471546164677
aF-3.5527136788005009e-15
aF0
aa(lp187
S'ik_elbow_r_anim'
p188
a(lp189
VtranslateX
p190
aVtranslateY
p191
aVtranslateZ
p192
aaF23.234471546164677
aF-3.5527136788005009e-15
aF0
aa(lp193
S'ik_wrist_l_anim'
p194
a(lp195
VtranslateX
p196
aVtranslateY
p197
aVtranslateZ
p198
aVrotateX
p199
aVrotateY
p200
aVrotateZ
p201
aVstretch
p202
aVsquash
p203
aVside
p204
aVmid_bend
p205
aVmid_swivel
p206
aVtip_pivot
p207
aVtip_swivel
p208
aaF-44.827348975238465
aF-32.164306574045241
aF-26.550457913571677
aF-79.802349922544124
aF5.7205419641698469
aF-88.972773150815655
aF0
aF0
aF0
aF0
aF0
aF0
aF0
aa(lp209
S'ik_wrist_r_anim'
p210
a(lp211
VtranslateX
p212
aVtranslateY
p213
aVtranslateZ
p214
aVrotateX
p215
aVrotateY
p216
aVrotateZ
p217
aVstretch
p218
aVsquash
p219
aVside
p220
aVmid_bend
p221
aVmid_swivel
p222
aVtip_pivot
p223
aVtip_swivel
p224
aaF44.827348975238465
aF-3.3990082825809118
aF-52.133751685034497
aF0
aF-79.853674276985402
aF-0
aF0
aF0
aF0
aF0
aF0
aF0
aF0
aa(lp225
S'fk_thigh_l_anim'
p226
a(lp227
VrotateX
p228
aVrotateY
p229
aVrotateZ
p230
aaF-2.8207063870240999e-16
aF1.5530052155583578e-18
aF2.4848083448933725e-17
aa(lp231
S'fk_thigh_r_anim'
p232
a(lp233
VrotateX
p234
aVrotateY
p235
aVrotateZ
p236
aaF-5.8618667175380076e-16
aF-0
aF2.4848083448933731e-17
aa(lp237
S'fk_calf_l_anim'
p238
a(lp239
VrotateX
p240
aVrotateY
p241
aVrotateZ
p242
aaF0
aF0
aF0
aa(lp243
S'fk_calf_r_anim'
p244
a(lp245
VrotateX
p246
aVrotateY
p247
aVrotateZ
p248
aaF0
aF0
aF0
aa(lp249
S'fk_foot_l_anim'
p250
a(lp251
VrotateX
p252
aVrotateY
p253
aVrotateZ
p254
aaF0
aF0
aF0
aa(lp255
S'fk_foot_r_anim'
p256
a(lp257
VrotateX
p258
aVrotateY
p259
aVrotateZ
p260
aaF-3.7635228676863548e-44
aF-0
aF0
aa(lp261
S'fk_ball_l_anim'
p262
a(lp263
VrotateX
p264
aVrotateY
p265
aVrotateZ
p266
aaF1.1299600123008406e-29
aF-0
aF0
aa(lp267
S'fk_ball_r_anim'
p268
a(lp269
VrotateX
p270
aVrotateY
p271
aVrotateZ
p272
aaF0
aF-2.6483437402281104e-30
aF0
aa(lp273
S'ik_foot_anim_l'
p274
a(lp275
VtranslateX
p276
aVtranslateY
p277
aVtranslateZ
p278
aVrotateX
p279
aVrotateY
p280
aVrotateZ
p281
aVknee_twist
p282
aVstretch
p283
aVsquash
p284
aVtoeCtrlVis
p285
aaF3.4670270854457668
aF0
aF-1.7763568394002505e-15
aF0
aF0
aF0
aF0
aF0
aF0
aI00
aa(lp286
S'ik_foot_anim_r'
p287
a(lp288
VtranslateX
p289
aVtranslateY
p290
aVtranslateZ
p291
aVrotateX
p292
aVrotateY
p293
aVrotateZ
p294
aVknee_twist
p295
aVstretch
p296
aVsquash
p297
aVtoeCtrlVis
p298
aaF-3.4670270854457668
aF0
aF-1.7763568394002505e-15
aF0
aF-0
aF-0
aF0
aF0
aF0
aI00
aa(lp299
S'heel_ctrl_l'
p300
a(lp301
VrotateX
p302
aVrotateY
p303
aVrotateZ
p304
aVheelPivot
p305
aVballPivot
p306
aaF2.1181581302668755e-13
aF1.9406353173617244e-14
aF0
aF0
aF0
aa(lp307
S'heel_ctrl_r'
p308
a(lp309
VrotateX
p310
aVrotateY
p311
aVrotateZ
p312
aVheelPivot
p313
aVballPivot
p314
aaF1.8251426873078172e-13
aF-1.2709794684129595e-14
aF0
aF0
aF0
aa(lp315
S'toe_wiggle_ctrl_l'
p316
a(lp317
VrotateX
p318
aVrotateY
p319
aVrotateZ
p320
aaF0
aF1.765562493485407e-31
aF0
aa(lp321
S'toe_wiggle_ctrl_r'
p322
a(lp323
VrotateX
p324
aVrotateY
p325
aVrotateZ
p326
aaF0
aF1.765562493485407e-31
aF0
aa(lp327
S'toe_tip_ctrl_l'
p328
a(lp329
VrotateX
p330
aVrotateY
p331
aVrotateZ
p332
aaF0
aF1.765562493485407e-31
aF0
aa(lp333
S'toe_tip_ctrl_r'
p334
a(lp335
VrotateX
p336
aVrotateY
p337
aVrotateZ
p338
aaF0
aF1.765562493485407e-31
aF0
aa(lp339
S'master_anim'
p340
a(lp341
VtranslateX
p342
aVtranslateY
p343
aVtranslateZ
p344
aVrotateX
p345
aVrotateY
p346
aVrotateZ
p347
aaF0
aF0
aF0
aF0
aF0
aF0
aa(lp348
S'offset_anim'
p349
a(lp350
VtranslateX
p351
aVtranslateY
p352
aVtranslateZ
p353
aVrotateX
p354
aVrotateY
p355
aVrotateZ
p356
aaF0
aF0
aF0
aF0
aF0
aF0
aa(lp357
S'root_anim'
p358
a(lp359
VtranslateX
p360
aVtranslateY
p361
aVtranslateZ
p362
aVrotateX
p363
aVrotateY
p364
aVrotateZ
p365
aaF0
aF0
aF0
aF0
aF0
aF0
aa(lp366
S'upperarm_l_twist_anim'
p367
a(lp368
VtranslateX
p369
aVtranslateY
p370
aVtranslateZ
p371
aVrotateX
p372
aVrotateY
p373
aVrotateZ
p374
aVscaleX
p375
aVscaleY
p376
aVscaleZ
p377
aaF0
aF0
aF0
aF0
aF0
aF0
aF1
aF1
aF1
aa(lp378
S'upperarm_r_twist_anim'
p379
a(lp380
VtranslateX
p381
aVtranslateY
p382
aVtranslateZ
p383
aVrotateX
p384
aVrotateY
p385
aVrotateZ
p386
aVscaleX
p387
aVscaleY
p388
aVscaleZ
p389
aaF0
aF0
aF0
aF0
aF0
aF0
aF1
aF1
aF1
aa(lp390
S'thigh_l_twist_anim'
p391
a(lp392
VtranslateX
p393
aVtranslateY
p394
aVtranslateZ
p395
aVrotateX
p396
aVrotateY
p397
aVrotateZ
p398
aaF0
aF0
aF0
aF0
aF0
aF0
aa(lp399
S'thigh_r_twist_anim'
p400
a(lp401
VtranslateX
p402
aVtranslateY
p403
aVtranslateZ
p404
aVrotateX
p405
aVrotateY
p406
aVrotateZ
p407
aaF0
aF0
aF0
aF0
aF0
aF0
aa(lp408
S'pinky_metacarpal_ctrl_l'
p409
a(lp410
VrotateX
p411
aVrotateY
p412
aVrotateZ
p413
aaF0
aF0.29436197409999998
aF3.1550583470000002
aa(lp414
S'pinky_metacarpal_ctrl_r'
p415
a(lp416
VrotateX
p417
aVrotateY
p418
aVrotateZ
p419
aaF0
aF0.29436197409999998
aF3.1550583470000002
aa(lp420
S'pinky_finger_fk_ctrl_1_l'
p421
a(lp422
VtranslateX
p423
aVtranslateY
p424
aVtranslateZ
p425
aVrotateX
p426
aVrotateY
p427
aVrotateZ
p428
aVsticky
p429
aaF0
aF0
aF0
aF-0.4250018418
aF6.4714769199999997
aF7.9148873250000005
aF0
aa(lp430
S'pinky_finger_fk_ctrl_1_r'
p431
a(lp432
VtranslateX
p433
aVtranslateY
p434
aVtranslateZ
p435
aVrotateX
p436
aVrotateY
p437
aVrotateZ
p438
aVsticky
p439
aaF0
aF0
aF0
aF-0.4250018418
aF6.4714769199999997
aF7.9148873250000005
aF0
aa(lp440
S'pinky_finger_fk_ctrl_2_l'
p441
a(lp442
VtranslateX
p443
aVtranslateY
p444
aVtranslateZ
p445
aVrotateX
p446
aVrotateY
p447
aVrotateZ
p448
aaF0
aF0
aF0
aF0
aF0
aF39.3905174
aa(lp449
S'pinky_finger_fk_ctrl_2_r'
p450
a(lp451
VtranslateX
p452
aVtranslateY
p453
aVtranslateZ
p454
aVrotateX
p455
aVrotateY
p456
aVrotateZ
p457
aaF0
aF0
aF0
aF0
aF0
aF39.3905174
aa(lp458
S'pinky_finger_fk_ctrl_3_l'
p459
a(lp460
VtranslateX
p461
aVtranslateY
p462
aVtranslateZ
p463
aVrotateX
p464
aVrotateY
p465
aVrotateZ
p466
aaF0
aF0
aF0
aF0
aF0
aF12.804350980000001
aa(lp467
S'pinky_finger_fk_ctrl_3_r'
p468
a(lp469
VtranslateX
p470
aVtranslateY
p471
aVtranslateZ
p472
aVrotateX
p473
aVrotateY
p474
aVrotateZ
p475
aaF0
aF0
aF0
aF0
aF0
aF12.804350980000001
aa(lp476
S'ring_metacarpal_ctrl_l'
p477
a(lp478
VrotateX
p479
aVrotateY
p480
aVrotateZ
p481
aaF0
aF0
aF0
aa(lp482
S'ring_metacarpal_ctrl_r'
p483
a(lp484
VrotateX
p485
aVrotateY
p486
aVrotateZ
p487
aaF0
aF0
aF0
aa(lp488
S'ring_finger_fk_ctrl_1_l'
p489
a(lp490
VtranslateX
p491
aVtranslateY
p492
aVtranslateZ
p493
aVrotateX
p494
aVrotateY
p495
aVrotateZ
p496
aVsticky
p497
aaF0
aF0
aF0
aF0.12218283760000001
aF1.3051238380000001
aF9.6923258879999992
aF0
aa(lp498
S'ring_finger_fk_ctrl_1_r'
p499
a(lp500
VtranslateX
p501
aVtranslateY
p502
aVtranslateZ
p503
aVrotateX
p504
aVrotateY
p505
aVrotateZ
p506
aVsticky
p507
aaF0
aF0
aF0
aF0.12218283760000001
aF1.3051238380000001
aF9.6923258879999992
aF0
aa(lp508
S'ring_finger_fk_ctrl_2_l'
p509
a(lp510
VtranslateX
p511
aVtranslateY
p512
aVtranslateZ
p513
aVrotateX
p514
aVrotateY
p515
aVrotateZ
p516
aaF0
aF0
aF0
aF0
aF0
aF26.540039520000001
aa(lp517
S'ring_finger_fk_ctrl_2_r'
p518
a(lp519
VtranslateX
p520
aVtranslateY
p521
aVtranslateZ
p522
aVrotateX
p523
aVrotateY
p524
aVrotateZ
p525
aaF0
aF0
aF0
aF0
aF0
aF26.540039520000001
aa(lp526
S'ring_finger_fk_ctrl_3_l'
p527
a(lp528
VtranslateX
p529
aVtranslateY
p530
aVtranslateZ
p531
aVrotateX
p532
aVrotateY
p533
aVrotateZ
p534
aaF0
aF0
aF0
aF0
aF0
aF9.3836626360000004
aa(lp535
S'ring_finger_fk_ctrl_3_r'
p536
a(lp537
VtranslateX
p538
aVtranslateY
p539
aVtranslateZ
p540
aVrotateX
p541
aVrotateY
p542
aVrotateZ
p543
aaF0
aF0
aF0
aF0
aF0
aF9.3836626360000004
aa(lp544
S'middle_metacarpal_ctrl_l'
p545
a(lp546
VrotateX
p547
aVrotateY
p548
aVrotateZ
p549
aaF0
aF0
aF0
aa(lp550
S'middle_metacarpal_ctrl_r'
p551
a(lp552
VrotateX
p553
aVrotateY
p554
aVrotateZ
p555
aaF0
aF0
aF0
aa(lp556
S'middle_finger_fk_ctrl_1_l'
p557
a(lp558
VtranslateX
p559
aVtranslateY
p560
aVtranslateZ
p561
aVrotateX
p562
aVrotateY
p563
aVrotateZ
p564
aVsticky
p565
aaF0
aF0
aF0
aF0
aF0
aF1.42494476
aF0
aa(lp566
S'middle_finger_fk_ctrl_1_r'
p567
a(lp568
VtranslateX
p569
aVtranslateY
p570
aVtranslateZ
p571
aVrotateX
p572
aVrotateY
p573
aVrotateZ
p574
aVsticky
p575
aaF0
aF0
aF0
aF0
aF0
aF1.42494476
aF0
aa(lp576
S'middle_finger_fk_ctrl_2_l'
p577
a(lp578
VtranslateX
p579
aVtranslateY
p580
aVtranslateZ
p581
aVrotateX
p582
aVrotateY
p583
aVrotateZ
p584
aaF0
aF0
aF0
aF0
aF0
aF13.07013151
aa(lp585
S'middle_finger_fk_ctrl_2_r'
p586
a(lp587
VtranslateX
p588
aVtranslateY
p589
aVtranslateZ
p590
aVrotateX
p591
aVrotateY
p592
aVrotateZ
p593
aaF0
aF0
aF0
aF0
aF0
aF13.07013151
aa(lp594
S'middle_finger_fk_ctrl_3_l'
p595
a(lp596
VtranslateX
p597
aVtranslateY
p598
aVtranslateZ
p599
aVrotateX
p600
aVrotateY
p601
aVrotateZ
p602
aaF0
aF0
aF0
aF0
aF0
aF11.9622385
aa(lp603
S'middle_finger_fk_ctrl_3_r'
p604
a(lp605
VtranslateX
p606
aVtranslateY
p607
aVtranslateZ
p608
aVrotateX
p609
aVrotateY
p610
aVrotateZ
p611
aaF0
aF0
aF0
aF0
aF0
aF11.9622385
aa(lp612
S'index_metacarpal_ctrl_l'
p613
a(lp614
VrotateX
p615
aVrotateY
p616
aVrotateZ
p617
aaF0
aF-0.39898574399999998
aF0
aa(lp618
S'index_metacarpal_ctrl_r'
p619
a(lp620
VrotateX
p621
aVrotateY
p622
aVrotateZ
p623
aaF0
aF-0.39898574399999998
aF0
aa(lp624
S'index_finger_fk_ctrl_1_l'
p625
a(lp626
VtranslateX
p627
aVtranslateY
p628
aVtranslateZ
p629
aVrotateX
p630
aVrotateY
p631
aVrotateZ
p632
aVsticky
p633
aaF0
aF0
aF0
aF0
aF0
aF2.6785281520000002
aF0
aa(lp634
S'index_finger_fk_ctrl_1_r'
p635
a(lp636
VtranslateX
p637
aVtranslateY
p638
aVtranslateZ
p639
aVrotateX
p640
aVrotateY
p641
aVrotateZ
p642
aVsticky
p643
aaF0
aF0
aF0
aF0
aF0
aF2.6785281520000002
aF0
aa(lp644
S'index_finger_fk_ctrl_2_l'
p645
a(lp646
VtranslateX
p647
aVtranslateY
p648
aVtranslateZ
p649
aVrotateX
p650
aVrotateY
p651
aVrotateZ
p652
aaF0
aF0
aF0
aF0
aF0
aF6.3826249629999996
aa(lp653
S'index_finger_fk_ctrl_2_r'
p654
a(lp655
VtranslateX
p656
aVtranslateY
p657
aVtranslateZ
p658
aVrotateX
p659
aVrotateY
p660
aVrotateZ
p661
aaF0
aF0
aF0
aF0
aF0
aF6.3826249629999996
aa(lp662
S'index_finger_fk_ctrl_3_l'
p663
a(lp664
VtranslateX
p665
aVtranslateY
p666
aVtranslateZ
p667
aVrotateX
p668
aVrotateY
p669
aVrotateZ
p670
aaF0
aF0
aF0
aF0
aF0
aF3.7672390280000001
aa(lp671
S'index_finger_fk_ctrl_3_r'
p672
a(lp673
VtranslateX
p674
aVtranslateY
p675
aVtranslateZ
p676
aVrotateX
p677
aVrotateY
p678
aVrotateZ
p679
aaF0
aF0
aF0
aF0
aF0
aF3.7672390280000001
aa(lp680
S'thumb_finger_fk_ctrl_1_l'
p681
a(lp682
VtranslateX
p683
aVtranslateY
p684
aVtranslateZ
p685
aVrotateX
p686
aVrotateY
p687
aVrotateZ
p688
aVsticky
p689
aaF0
aF0
aF0
aF-6.7669023025744526
aF-16.43818444420182
aF6.315208670121975
aF0
aa(lp690
S'thumb_finger_fk_ctrl_1_r'
p691
a(lp692
VtranslateX
p693
aVtranslateY
p694
aVtranslateZ
p695
aVrotateX
p696
aVrotateY
p697
aVrotateZ
p698
aVsticky
p699
aaF0
aF0
aF0
aF-6.7669023025744526
aF-16.43818444420182
aF6.315208670121975
aF0
aa(lp700
S'thumb_finger_fk_ctrl_2_l'
p701
a(lp702
VtranslateX
p703
aVtranslateY
p704
aVtranslateZ
p705
aVrotateX
p706
aVrotateY
p707
aVrotateZ
p708
aaF0
aF0
aF0
aF0
aF0
aF17.574516350404419
aa(lp709
S'thumb_finger_fk_ctrl_2_r'
p710
a(lp711
VtranslateX
p712
aVtranslateY
p713
aVtranslateZ
p714
aVrotateX
p715
aVrotateY
p716
aVrotateZ
p717
aaF0
aF0
aF0
aF0
aF0
aF17.574516350404419
aa(lp718
S'thumb_finger_fk_ctrl_3_l'
p719
a(lp720
VtranslateX
p721
aVtranslateY
p722
aVtranslateZ
p723
aVrotateX
p724
aVrotateY
p725
aVrotateZ
p726
aaF0
aF0
aF0
aF0
aF0
aF4.7566897911614712
aa(lp727
S'thumb_finger_fk_ctrl_3_r'
p728
a(lp729
VtranslateX
p730
aVtranslateY
p731
aVtranslateZ
p732
aVrotateX
p733
aVrotateY
p734
aVrotateZ
p735
aaF0
aF0
aF0
aF0
aF0
aF4.7566897911614712
aa(lp736
S'index_l_ik_anim'
p737
a(lp738
VtranslateX
p739
aVtranslateY
p740
aVtranslateZ
p741
aVrotateX
p742
aVrotateY
p743
aVrotateZ
p744
aVpoleVectorVis
p745
aaF0
aF0
aF0
aF0
aF0
aF0
aF0
aa(lp746
S'index_r_ik_anim'
p747
a(lp748
VtranslateX
p749
aVtranslateY
p750
aVtranslateZ
p751
aVrotateX
p752
aVrotateY
p753
aVrotateZ
p754
aVpoleVectorVis
p755
aaF0
aF0
aF0
aF0
aF0
aF0
aF0
aa(lp756
S'middle_l_ik_anim'
p757
a(lp758
VtranslateX
p759
aVtranslateY
p760
aVtranslateZ
p761
aVrotateX
p762
aVrotateY
p763
aVrotateZ
p764
aVpoleVectorVis
p765
aaF0
aF0
aF0
aF0
aF0
aF0
aF0
aa(lp766
S'middle_r_ik_anim'
p767
a(lp768
VtranslateX
p769
aVtranslateY
p770
aVtranslateZ
p771
aVrotateX
p772
aVrotateY
p773
aVrotateZ
p774
aVpoleVectorVis
p775
aaF0
aF0
aF0
aF0
aF0
aF0
aF0
aa(lp776
S'ring_l_ik_anim'
p777
a(lp778
VtranslateX
p779
aVtranslateY
p780
aVtranslateZ
p781
aVrotateX
p782
aVrotateY
p783
aVrotateZ
p784
aVpoleVectorVis
p785
aaF0
aF0
aF0
aF0
aF0
aF0
aF0
aa(lp786
S'ring_r_ik_anim'
p787
a(lp788
VtranslateX
p789
aVtranslateY
p790
aVtranslateZ
p791
aVrotateX
p792
aVrotateY
p793
aVrotateZ
p794
aVpoleVectorVis
p795
aaF0
aF0
aF0
aF0
aF0
aF0
aF0
aa(lp796
S'pinky_l_ik_anim'
p797
a(lp798
VtranslateX
p799
aVtranslateY
p800
aVtranslateZ
p801
aVrotateX
p802
aVrotateY
p803
aVrotateZ
p804
aVpoleVectorVis
p805
aaF0
aF0
aF0
aF0
aF0
aF0
aF0
aa(lp806
S'pinky_r_ik_anim'
p807
a(lp808
VtranslateX
p809
aVtranslateY
p810
aVtranslateZ
p811
aVrotateX
p812
aVrotateY
p813
aVrotateZ
p814
aVpoleVectorVis
p815
aaF0
aF0
aF0
aF0
aF0
aF0
aF0
aa(lp816
S'thumb_l_ik_anim'
p817
a(lp818
VtranslateX
p819
aVtranslateY
p820
aVtranslateZ
p821
aVrotateX
p822
aVrotateY
p823
aVrotateZ
p824
aVpoleVectorVis
p825
aaF0
aF0
aF0
aF0
aF0
aF0
aF0
aa(lp826
S'thumb_r_ik_anim'
p827
a(lp828
VtranslateX
p829
aVtranslateY
p830
aVtranslateZ
p831
aVrotateX
p832
aVrotateY
p833
aVrotateZ
p834
aVpoleVectorVis
p835
aaF0
aF0
aF0
aF0
aF0
aF0
aF0
aa(lp836
S'index_l_poleVector'
p837
a(lp838
VtranslateX
p839
aVtranslateY
p840
aVtranslateZ
p841
aVrotateX
p842
aVrotateY
p843
aVrotateZ
p844
aaF0
aF0
aF0
aF0
aF0
aF0
aa(lp845
S'index_r_poleVector'
p846
a(lp847
VtranslateX
p848
aVtranslateY
p849
aVtranslateZ
p850
aVrotateX
p851
aVrotateY
p852
aVrotateZ
p853
aaF0
aF0
aF0
aF0
aF0
aF0
aa(lp854
S'middle_l_poleVector'
p855
a(lp856
VtranslateX
p857
aVtranslateY
p858
aVtranslateZ
p859
aVrotateX
p860
aVrotateY
p861
aVrotateZ
p862
aaF0
aF0
aF0
aF0
aF0
aF0
aa(lp863
S'middle_r_poleVector'
p864
a(lp865
VtranslateX
p866
aVtranslateY
p867
aVtranslateZ
p868
aVrotateX
p869
aVrotateY
p870
aVrotateZ
p871
aaF0
aF0
aF0
aF0
aF0
aF0
aa(lp872
S'ring_l_poleVector'
p873
a(lp874
VtranslateX
p875
aVtranslateY
p876
aVtranslateZ
p877
aVrotateX
p878
aVrotateY
p879
aVrotateZ
p880
aaF0
aF0
aF0
aF0
aF0
aF0
aa(lp881
S'ring_r_poleVector'
p882
a(lp883
VtranslateX
p884
aVtranslateY
p885
aVtranslateZ
p886
aVrotateX
p887
aVrotateY
p888
aVrotateZ
p889
aaF0
aF0
aF0
aF0
aF0
aF0
aa(lp890
S'pinky_l_poleVector'
p891
a(lp892
VtranslateX
p893
aVtranslateY
p894
aVtranslateZ
p895
aVrotateX
p896
aVrotateY
p897
aVrotateZ
p898
aaF0
aF0
aF0
aF0
aF0
aF0
aa(lp899
S'pinky_r_poleVector'
p900
a(lp901
VtranslateX
p902
aVtranslateY
p903
aVtranslateZ
p904
aVrotateX
p905
aVrotateY
p906
aVrotateZ
p907
aaF0
aF0
aF0
aF0
aF0
aF0
aa(lp908
S'thumb_l_poleVector'
p909
a(lp910
VtranslateX
p911
aVtranslateY
p912
aVtranslateZ
p913
aVrotateX
p914
aVrotateY
p915
aVrotateZ
p916
aaF0
aF0
aF0
aF0
aF0
aF0
aa(lp917
S'thumb_r_poleVector'
p918
a(lp919
VtranslateX
p920
aVtranslateY
p921
aVtranslateZ
p922
aVrotateX
p923
aVrotateY
p924
aVrotateZ
p925
aaF0
aF0
aF0
aF0
aF0
aF0
aa(lp926
S'l_global_ik_anim'
p927
a(lp928
VtranslateX
p929
aVtranslateY
p930
aVtranslateZ
p931
aVrotateX
p932
aVrotateY
p933
aVrotateZ
p934
aaF0
aF0
aF0
aF0
aF0
aF0
aa(lp935
S'r_global_ik_anim'
p936
a(lp937
VtranslateX
p938
aVtranslateY
p939
aVtranslateZ
p940
aVrotateX
p941
aVrotateY
p942
aVrotateZ
p943
aaF0
aF0
aF0
aF0
aF0
aF0
aa(lp944
S'Rig_Settings'
p945
a(lp946
Vspine_ik
p947
aVspine_fk
p948
aVlLegMode
p949
aVlThighTwistAmount
p950
aVlCalfTwistAmount
p951
aVrLegMode
p952
aVrThighTwistAmount
p953
aVrCalfTwistAmount
p954
aVlFkArmOrient
p955
aVlArmMode
p956
aVlClavMode
p957
aVltwistCtrlVis
p958
aVlUpperarmTwistAmount
p959
aVltwistCtrlVisLower
p960
aVlForearmTwistAmount
p961
aVrFkArmOrient
p962
aVrArmMode
p963
aVrClavMode
p964
aVrtwistCtrlVis
p965
aVrUpperarmTwistAmount
p966
aVrtwistCtrlVisLower
p967
aVrForearmTwistAmount
p968
aaF1
aF0
aI1
aF0.90000000000000002
aF0.5
aI1
aF0.90000000000000002
aF0.5
aI0
aI1
aI1
aI00
aF0.90000000000000002
aI00
aF0.5
aI0
aI1
aI1
aI00
aF0.90000000000000002
aI00
aF0.5
aa(lp969
Vbigtoe_ik_ctrl_l_grp_space_switcher
p970
a(lp971
Vvisibility
p972
aVtranslateX
p973
aVtranslateY
p974
aVtranslateZ
p975
aVrotateX
p976
aVrotateY
p977
aVrotateZ
p978
aVscaleX
p979
aVscaleY
p980
aVscaleZ
p981
aVspace_world
p982
aaI01
aF1.7763568394002505e-15
aF-4.4408920985006262e-16
aF0
aF-7.9513867036587939e-16
aF-0
aF0
aF1
aF0.99999999999999989
aF0.99999999999999989
aF0
aa(lp983
Vbigtoe_ik_ctrl_r_grp_space_switcher
p984
a(lp985
Vvisibility
p986
aVtranslateX
p987
aVtranslateY
p988
aVtranslateZ
p989
aVrotateX
p990
aVrotateY
p991
aVrotateZ
p992
aVscaleX
p993
aVscaleY
p994
aVscaleZ
p995
aVspace_world
p996
aaI01
aF1.7763568394002505e-15
aF0
aF0
aF0
aF-9.9392333795734899e-17
aF0
aF1
aF0.99999999999999989
aF0.99999999999999989
aF0
aa(lp997
Vbody_anim_space_switcher
p998
a(lp999
Vvisibility
p1000
aVtranslateX
p1001
aVtranslateY
p1002
aVtranslateZ
p1003
aVrotateX
p1004
aVrotateY
p1005
aVrotateZ
p1006
aVscaleX
p1007
aVscaleY
p1008
aVscaleZ
p1009
aVspace_world
p1010
aaI01
aF0
aF0
aF0
aF0
aF0
aF0
aF1
aF1
aF1
aF0
aa(lp1011
Vchest_ik_anim_space_switcher
p1012
a(lp1013
Vvisibility
p1014
aVtranslateX
p1015
aVtranslateY
p1016
aVtranslateZ
p1017
aVrotateX
p1018
aVrotateY
p1019
aVrotateZ
p1020
aVscaleX
p1021
aVscaleY
p1022
aVscaleZ
p1023
aVspace_world
p1024
aVspace_chest_ik_world_aligned
p1025
aaI01
aF0
aF0
aF2.5243548967072378e-29
aF0
aF-1.1299600123008406e-29
aF0
aF1
aF1
aF1
aF0
aF0
aa(lp1026
Vik_elbow_l_anim_space_switcher
p1027
a(lp1028
Vvisibility
p1029
aVtranslateX
p1030
aVtranslateY
p1031
aVtranslateZ
p1032
aVrotateX
p1033
aVrotateY
p1034
aVrotateZ
p1035
aVscaleX
p1036
aVscaleY
p1037
aVscaleZ
p1038
aVspace_world
p1039
aVspace_body_anim
p1040
aVspace_chest_ik_anim
p1041
aaI01
aF0
aF0
aF0
aF0
aF0
aF0
aF1
aF1
aF1
aF0
aF0
aF0
aa(lp1042
Vik_elbow_r_anim_space_switcher
p1043
a(lp1044
Vvisibility
p1045
aVtranslateX
p1046
aVtranslateY
p1047
aVtranslateZ
p1048
aVrotateX
p1049
aVrotateY
p1050
aVrotateZ
p1051
aVscaleX
p1052
aVscaleY
p1053
aVscaleZ
p1054
aVspace_world
p1055
aVspace_body_anim
p1056
aVspace_chest_ik_anim
p1057
aaI01
aF0
aF0
aF0
aF0
aF0
aF0
aF1
aF1
aF1
aF0
aF0
aF0
aa(lp1058
Vik_foot_anim_l_space_switcher
p1059
a(lp1060
Vvisibility
p1061
aVtranslateX
p1062
aVtranslateY
p1063
aVtranslateZ
p1064
aVrotateX
p1065
aVrotateY
p1066
aVrotateZ
p1067
aVscaleX
p1068
aVscaleY
p1069
aVscaleZ
p1070
aVspace_world
p1071
aVspace_body_anim
p1072
aaI01
aF0
aF0
aF0
aF0
aF0
aF0
aF1
aF1
aF1
aF0
aF0
aa(lp1073
Vik_foot_anim_r_space_switcher
p1074
a(lp1075
Vvisibility
p1076
aVtranslateX
p1077
aVtranslateY
p1078
aVtranslateZ
p1079
aVrotateX
p1080
aVrotateY
p1081
aVrotateZ
p1082
aVscaleX
p1083
aVscaleY
p1084
aVscaleZ
p1085
aVspace_world
p1086
aVspace_body_anim
p1087
aaI01
aF0
aF0
aF0
aF0
aF0
aF0
aF1
aF1
aF1
aF0
aF0
aa(lp1088
Vik_wrist_l_anim_space_switcher
p1089
a(lp1090
Vvisibility
p1091
aVtranslateX
p1092
aVtranslateY
p1093
aVtranslateZ
p1094
aVrotateX
p1095
aVrotateY
p1096
aVrotateZ
p1097
aVscaleX
p1098
aVscaleY
p1099
aVscaleZ
p1100
aVspace_world
p1101
aVspace_body_anim
p1102
aVspace_head_fk_anim
p1103
aVspace_chest_ik_anim
p1104
aaI01
aF0
aF0
aF0
aF0
aF0
aF0
aF1
aF1
aF1
aF0
aF0
aF0
aF0
aa(lp1105
Vik_wrist_r_anim_space_switcher
p1106
a(lp1107
Vvisibility
p1108
aVtranslateX
p1109
aVtranslateY
p1110
aVtranslateZ
p1111
aVrotateX
p1112
aVrotateY
p1113
aVrotateZ
p1114
aVscaleX
p1115
aVscaleY
p1116
aVscaleZ
p1117
aVspace_world
p1118
aVspace_body_anim
p1119
aVspace_head_fk_anim
p1120
aVspace_chest_ik_anim
p1121
aaI01
aF0
aF0
aF0
aF0
aF0
aF0
aF1
aF1
aF1
aF0
aF0
aF0
aF0
aa(lp1122
Vindex_ik_ctrl_l_grp_space_switcher
p1123
a(lp1124
Vvisibility
p1125
aVtranslateX
p1126
aVtranslateY
p1127
aVtranslateZ
p1128
aVrotateX
p1129
aVrotateY
p1130
aVrotateZ
p1131
aVscaleX
p1132
aVscaleY
p1133
aVscaleZ
p1134
aVspace_world
p1135
aaI01
aF0
aF-4.4408920985006262e-16
aF0
aF0
aF3.6650923087177251e-16
aF7.9513867036587919e-16
aF1
aF1
aF1.0000000000000002
aF0
aa(lp1136
Vindex_ik_ctrl_r_grp_space_switcher
p1137
a(lp1138
Vvisibility
p1139
aVtranslateX
p1140
aVtranslateY
p1141
aVtranslateZ
p1142
aVrotateX
p1143
aVrotateY
p1144
aVrotateZ
p1145
aVscaleX
p1146
aVscaleY
p1147
aVscaleZ
p1148
aVspace_world
p1149
aaI01
aF-1.7763568394002505e-15
aF-4.4408920985006262e-16
aF-8.8817841970012523e-16
aF-9.9392333795734899e-17
aF6.2120208622334312e-17
aF7.9513867036587919e-16
aF1
aF1
aF1
aF0
aa(lp1150
Vl_global_ik_anim_space_switcher
p1151
a(lp1152
Vvisibility
p1153
aVtranslateX
p1154
aVtranslateY
p1155
aVtranslateZ
p1156
aVrotateX
p1157
aVrotateY
p1158
aVrotateZ
p1159
aVscaleX
p1160
aVscaleY
p1161
aVscaleZ
p1162
aVspace_world
p1163
aaI01
aF0
aF0
aF0
aF0
aF0
aF0
aF1
aF1
aF1
aF0
aa(lp1164
Vmaster_anim_space_switcher
p1165
a(lp1166
Vvisibility
p1167
aVtranslateX
p1168
aVtranslateY
p1169
aVtranslateZ
p1170
aVrotateX
p1171
aVrotateY
p1172
aVrotateZ
p1173
aVscaleX
p1174
aVscaleY
p1175
aVscaleZ
p1176
aVspace_world
p1177
aaI01
aF0
aF0
aF0
aF0
aF0
aF0
aF1
aF1
aF1
aF0
aa(lp1178
Vmiddle_ik_ctrl_l_grp_space_switcher
p1179
a(lp1180
Vvisibility
p1181
aVtranslateX
p1182
aVtranslateY
p1183
aVtranslateZ
p1184
aVrotateX
p1185
aVrotateY
p1186
aVrotateZ
p1187
aVscaleX
p1188
aVscaleY
p1189
aVscaleZ
p1190
aVspace_world
p1191
aaI01
aF0
aF8.8817841970012523e-16
aF1.7763568394002505e-15
aF9.9392333795734899e-17
aF-3.8514529345847282e-16
aF3.1805546814635176e-15
aF0.99999999999999989
aF1
aF1
aF0
aa(lp1192
Vmiddle_ik_ctrl_r_grp_space_switcher
p1193
a(lp1194
Vvisibility
p1195
aVtranslateX
p1196
aVtranslateY
p1197
aVtranslateZ
p1198
aVrotateX
p1199
aVrotateY
p1200
aVrotateZ
p1201
aVscaleX
p1202
aVscaleY
p1203
aVscaleZ
p1204
aVspace_world
p1205
aaI01
aF0
aF8.8817841970012523e-16
aF8.8817841970012523e-16
aF-4.9696166897867449e-17
aF5.3423379415207502e-16
aF0
aF1.0000000000000002
aF1
aF1.0000000000000002
aF0
aa(lp1206
Vr_global_ik_anim_space_switcher
p1207
a(lp1208
Vvisibility
p1209
aVtranslateX
p1210
aVtranslateY
p1211
aVtranslateZ
p1212
aVrotateX
p1213
aVrotateY
p1214
aVrotateZ
p1215
aVscaleX
p1216
aVscaleY
p1217
aVscaleZ
p1218
aVspace_world
p1219
aaI01
aF0
aF0
aF0
aF0
aF0
aF0
aF1
aF1
aF1
aF0
aa(lp1220
Vring_ik_ctrl_l_grp_space_switcher
p1221
a(lp1222
Vvisibility
p1223
aVtranslateX
p1224
aVtranslateY
p1225
aVtranslateZ
p1226
aVrotateX
p1227
aVrotateY
p1228
aVrotateZ
p1229
aVscaleX
p1230
aVscaleY
p1231
aVscaleZ
p1232
aVspace_world
p1233
aaI01
aF0
aF0
aF0
aF0
aF9.9392333795734899e-17
aF-1.5902773407317584e-15
aF1
aF1
aF1
aF0
aa(lp1234
Vring_ik_ctrl_r_grp_space_switcher
p1235
a(lp1236
Vvisibility
p1237
aVtranslateX
p1238
aVtranslateY
p1239
aVtranslateZ
p1240
aVrotateX
p1241
aVrotateY
p1242
aVrotateZ
p1243
aVscaleX
p1244
aVscaleY
p1245
aVscaleZ
p1246
aVspace_world
p1247
aaI01
aF0
aF0
aF-1.7763568394002505e-15
aF4.9696166897867437e-17
aF-1.0560435465796834e-16
aF-1.5902773407317584e-15
aF1
aF1.0000000000000002
aF1
aF0
aa(lp1248
Vspine_01_space_switcher
p1249
a(lp1250
Vvisibility
p1251
aVtranslateX
p1252
aVtranslateY
p1253
aVtranslateZ
p1254
aVrotateX
p1255
aVrotateY
p1256
aVrotateZ
p1257
aVscaleX
p1258
aVscaleY
p1259
aVscaleZ
p1260
aVspace_world
p1261
aaI01
aF0
aF0
aF1.2621774483536189e-29
aF0
aF-5.649800061504203e-30
aF0
aF1
aF1
aF1
aF0
aa.