(lp1
(lp2
S'head_fk_anim'
p3
a(lp4
VtranslateX
p5
aVtranslateY
p6
aVtranslateZ
p7
aVrotateX
p8
aVrotateY
p9
aVrotateZ
p10
aVscaleX
p11
aVscaleY
p12
aVscaleZ
p13
aVfkOrientation
p14
aaF0
aF0
aF0
aF0
aF0
aF0
aF1
aF1
aF1
aI0
aa(lp15
S'neck_01_fk_anim'
p16
a(lp17
VtranslateX
p18
aVtranslateY
p19
aVtranslateZ
p20
aVrotateX
p21
aVrotateY
p22
aVrotateZ
p23
aVscaleX
p24
aVscaleY
p25
aVscaleZ
p26
aVfkOrientation
p27
aaF0
aF0
aF0
aF0
aF5.649800061504203e-30
aF0
aF1
aF1
aF1
aI0
aa(lp28
S'neck_02_fk_anim'
p29
a(lp30
VtranslateX
p31
aVtranslateY
p32
aVtranslateZ
p33
aVrotateX
p34
aVrotateY
p35
aVrotateZ
p36
aVscaleX
p37
aVscaleY
p38
aVscaleZ
p39
aaF0
aF0
aF0
aF0
aF0
aF0
aF1
aF1
aF1
aa(lp40
S'spine_01_anim'
p41
a(lp42
Vlength
p43
aVtranslateY
p44
aVtranslateZ
p45
aVrotateX
p46
aVrotateY
p47
aVrotateZ
p48
aaF0
aF0
aF0
aF0
aF0
aF0
aa(lp49
S'spine_02_anim'
p50
a(lp51
Vlength
p52
aVtranslateY
p53
aVtranslateZ
p54
aVrotateX
p55
aVrotateY
p56
aVrotateZ
p57
aaF0
aF0
aF0
aF0
aF0
aF0
aa(lp58
S'spine_03_anim'
p59
a(lp60
Vlength
p61
aVtranslateY
p62
aVtranslateZ
p63
aVrotateX
p64
aVrotateY
p65
aVrotateZ
p66
aaF0
aF0
aF0
aF0
aF0
aF0
aa(lp67
S'mid_ik_anim'
p68
a(lp69
VtranslateX
p70
aVtranslateY
p71
aVtranslateZ
p72
aVrotateX
p73
aVrotateY
p74
aVrotateZ
p75
aaF0
aF0
aF0
aF0
aF0
aF0
aa(lp76
S'chest_ik_anim'
p77
a(lp78
VtranslateX
p79
aVtranslateY
p80
aVtranslateZ
p81
aVrotateX
p82
aVrotateY
p83
aVrotateZ
p84
aVstretch
p85
aVsquash
p86
aVtwist_amount
p87
aVspine_01_twistAmount
p88
aVspine_02_twistAmount
p89
aVautoSpine
p90
aVrotationInfluence
p91
aaF0
aF0
aF0
aF0
aF0
aF0
aF0
aF0
aF1
aF0.33333333333333331
aF0.66666666666666663
aF0
aF0.25
aa(lp92
S'body_anim'
p93
a(lp94
VtranslateX
p95
aVtranslateY
p96
aVtranslateZ
p97
aVrotateX
p98
aVrotateY
p99
aVrotateZ
p100
aaF0
aF0
aF0
aF0
aF0
aF0
aa(lp101
S'hip_anim'
p102
a(lp103
VtranslateX
p104
aVtranslateY
p105
aVtranslateZ
p106
aVrotateX
p107
aVrotateY
p108
aVrotateZ
p109
aVlTwistCtrlVis
p110
aVlCalfTwistCtrlVis
p111
aVrTwistCtrlVis
p112
aVrCalfTwistCtrlVis
p113
aVautoHips
p114
aaF0
aF0
aF-6.3108872417680944e-30
aF3.7272125173400562e-17
aF-2.5444437451708134e-14
aF4.9696166897867437e-17
aI00
aI00
aI00
aI00
aF0
aa(lp115
S'clavicle_l_anim'
p116
a(lp117
VtranslateX
p118
aVtranslateY
p119
aVtranslateZ
p120
aVautoShoulders
p121
aVtwistCtrlVis
p122
aVtwistCtrlVisLower
p123
aaF0
aF0
aF0
aF0
aI00
aI00
aa(lp124
S'clavicle_r_anim'
p125
a(lp126
VtranslateX
p127
aVtranslateY
p128
aVtranslateZ
p129
aVautoShoulders
p130
aVtwistCtrlVis
p131
aVtwistCtrlVisLower
p132
aaF0
aF0
aF0
aF0
aI00
aI00
aa(lp133
S'fk_arm_l_anim'
p134
a(lp135
VtranslateX
p136
aVtranslateY
p137
aVtranslateZ
p138
aVrotateX
p139
aVrotateY
p140
aVrotateZ
p141
aaF0
aF0
aF0
aF0
aF0
aF0
aa(lp142
S'fk_arm_r_anim'
p143
a(lp144
VtranslateX
p145
aVtranslateY
p146
aVtranslateZ
p147
aVrotateX
p148
aVrotateY
p149
aVrotateZ
p150
aaF0
aF0
aF0
aF0
aF0
aF0
aa(lp151
S'fk_elbow_l_anim'
p152
a(lp153
VtranslateX
p154
aVtranslateY
p155
aVtranslateZ
p156
aVrotateX
p157
aVrotateY
p158
aVrotateZ
p159
aaF0
aF0
aF0
aF0
aF0
aF0
aa(lp160
S'fk_elbow_r_anim'
p161
a(lp162
VtranslateX
p163
aVtranslateY
p164
aVtranslateZ
p165
aVrotateX
p166
aVrotateY
p167
aVrotateZ
p168
aaF0
aF0
aF0
aF0
aF0
aF0
aa(lp169
S'fk_wrist_l_anim'
p170
a(lp171
VtranslateX
p172
aVtranslateY
p173
aVtranslateZ
p174
aVrotateX
p175
aVrotateY
p176
aVrotateZ
p177
aaF0
aF0
aF0
aF0
aF0
aF0
aa(lp178
S'fk_wrist_r_anim'
p179
a(lp180
VtranslateX
p181
aVtranslateY
p182
aVtranslateZ
p183
aVrotateX
p184
aVrotateY
p185
aVrotateZ
p186
aaF0
aF0
aF0
aF0
aF0
aF0
aa(lp187
S'ik_elbow_l_anim'
p188
a(lp189
VtranslateX
p190
aVtranslateY
p191
aVtranslateZ
p192
aaF-23.234471546164677
aF-3.5527136788005009e-15
aF0
aa(lp193
S'ik_elbow_r_anim'
p194
a(lp195
VtranslateX
p196
aVtranslateY
p197
aVtranslateZ
p198
aaF23.234471546164677
aF-3.5527136788005009e-15
aF0
aa(lp199
S'ik_wrist_l_anim'
p200
a(lp201
VtranslateX
p202
aVtranslateY
p203
aVtranslateZ
p204
aVrotateX
p205
aVrotateY
p206
aVrotateZ
p207
aVstretch
p208
aVsquash
p209
aVside
p210
aVmid_bend
p211
aVmid_swivel
p212
aVtip_pivot
p213
aVtip_swivel
p214
aaF-44.827348975238465
aF-3.3990082825809118
aF-52.133751685034497
aF0
aF79.853674276985402
aF0
aF0
aF0
aF0
aF0
aF0
aF0
aF0
aa(lp215
S'ik_wrist_r_anim'
p216
a(lp217
VtranslateX
p218
aVtranslateY
p219
aVtranslateZ
p220
aVrotateX
p221
aVrotateY
p222
aVrotateZ
p223
aVstretch
p224
aVsquash
p225
aVside
p226
aVmid_bend
p227
aVmid_swivel
p228
aVtip_pivot
p229
aVtip_swivel
p230
aaF44.827348975238465
aF-3.3990082825809118
aF-52.133751685034497
aF0
aF-79.853674276985402
aF-0
aF0
aF0
aF0
aF0
aF0
aF0
aF0
aa(lp231
S'fk_thigh_l_anim'
p232
a(lp233
VrotateX
p234
aVrotateY
p235
aVrotateZ
p236
aaF-2.8207063870240999e-16
aF1.5530052155583578e-18
aF2.4848083448933725e-17
aa(lp237
S'fk_thigh_r_anim'
p238
a(lp239
VrotateX
p240
aVrotateY
p241
aVrotateZ
p242
aaF-5.8618667175380076e-16
aF-0
aF2.4848083448933731e-17
aa(lp243
S'fk_calf_l_anim'
p244
a(lp245
VrotateX
p246
aVrotateY
p247
aVrotateZ
p248
aaF0
aF0
aF0
aa(lp249
S'fk_calf_r_anim'
p250
a(lp251
VrotateX
p252
aVrotateY
p253
aVrotateZ
p254
aaF0
aF0
aF0
aa(lp255
S'fk_foot_l_anim'
p256
a(lp257
VrotateX
p258
aVrotateY
p259
aVrotateZ
p260
aaF0
aF0
aF0
aa(lp261
S'fk_foot_r_anim'
p262
a(lp263
VrotateX
p264
aVrotateY
p265
aVrotateZ
p266
aaF-3.7635228676863548e-44
aF-0
aF0
aa(lp267
S'fk_ball_l_anim'
p268
a(lp269
VrotateX
p270
aVrotateY
p271
aVrotateZ
p272
aaF1.1299600123008406e-29
aF-0
aF0
aa(lp273
S'fk_ball_r_anim'
p274
a(lp275
VrotateX
p276
aVrotateY
p277
aVrotateZ
p278
aaF0
aF-2.6483437402281104e-30
aF0
aa(lp279
S'ik_foot_anim_l'
p280
a(lp281
VtranslateX
p282
aVtranslateY
p283
aVtranslateZ
p284
aVrotateX
p285
aVrotateY
p286
aVrotateZ
p287
aVknee_twist
p288
aVstretch
p289
aVsquash
p290
aVtoeCtrlVis
p291
aaF3.4670270854457668
aF0
aF-1.7763568394002505e-15
aF0
aF0
aF0
aF0
aF0
aF0
aI00
aa(lp292
S'ik_foot_anim_r'
p293
a(lp294
VtranslateX
p295
aVtranslateY
p296
aVtranslateZ
p297
aVrotateX
p298
aVrotateY
p299
aVrotateZ
p300
aVknee_twist
p301
aVstretch
p302
aVsquash
p303
aVtoeCtrlVis
p304
aaF-3.4670270854457668
aF0
aF-1.7763568394002505e-15
aF0
aF-0
aF-0
aF0
aF0
aF0
aI00
aa(lp305
S'heel_ctrl_l'
p306
a(lp307
VrotateX
p308
aVrotateY
p309
aVrotateZ
p310
aVheelPivot
p311
aVballPivot
p312
aaF2.1181581302668755e-13
aF1.9406353173617244e-14
aF0
aF0
aF0
aa(lp313
S'heel_ctrl_r'
p314
a(lp315
VrotateX
p316
aVrotateY
p317
aVrotateZ
p318
aVheelPivot
p319
aVballPivot
p320
aaF1.8251426873078172e-13
aF-1.2709794684129595e-14
aF0
aF0
aF0
aa(lp321
S'toe_wiggle_ctrl_l'
p322
a(lp323
VrotateX
p324
aVrotateY
p325
aVrotateZ
p326
aaF0
aF1.765562493485407e-31
aF0
aa(lp327
S'toe_wiggle_ctrl_r'
p328
a(lp329
VrotateX
p330
aVrotateY
p331
aVrotateZ
p332
aaF0
aF1.765562493485407e-31
aF0
aa(lp333
S'toe_tip_ctrl_l'
p334
a(lp335
VrotateX
p336
aVrotateY
p337
aVrotateZ
p338
aaF0
aF1.765562493485407e-31
aF0
aa(lp339
S'toe_tip_ctrl_r'
p340
a(lp341
VrotateX
p342
aVrotateY
p343
aVrotateZ
p344
aaF0
aF1.765562493485407e-31
aF0
aa(lp345
S'master_anim'
p346
a(lp347
VtranslateX
p348
aVtranslateY
p349
aVtranslateZ
p350
aVrotateX
p351
aVrotateY
p352
aVrotateZ
p353
aaF0
aF0
aF0
aF0
aF0
aF0
aa(lp354
S'offset_anim'
p355
a(lp356
VtranslateX
p357
aVtranslateY
p358
aVtranslateZ
p359
aVrotateX
p360
aVrotateY
p361
aVrotateZ
p362
aaF0
aF0
aF0
aF0
aF0
aF0
aa(lp363
S'root_anim'
p364
a(lp365
VtranslateX
p366
aVtranslateY
p367
aVtranslateZ
p368
aVrotateX
p369
aVrotateY
p370
aVrotateZ
p371
aaF0
aF0
aF0
aF0
aF0
aF0
aa(lp372
S'upperarm_l_twist_anim'
p373
a(lp374
VtranslateX
p375
aVtranslateY
p376
aVtranslateZ
p377
aVrotateX
p378
aVrotateY
p379
aVrotateZ
p380
aaF0
aF0
aF0
aF0
aF0
aF0
aa(lp381
S'upperarm_r_twist_anim'
p382
a(lp383
VtranslateX
p384
aVtranslateY
p385
aVtranslateZ
p386
aVrotateX
p387
aVrotateY
p388
aVrotateZ
p389
aaF0
aF0
aF0
aF0
aF0
aF0
aa(lp390
S'thigh_l_twist_anim'
p391
a(lp392
VtranslateX
p393
aVtranslateY
p394
aVtranslateZ
p395
aVrotateX
p396
aVrotateY
p397
aVrotateZ
p398
aaF0
aF0
aF0
aF0
aF0
aF0
aa(lp399
S'thigh_r_twist_anim'
p400
a(lp401
VtranslateX
p402
aVtranslateY
p403
aVtranslateZ
p404
aVrotateX
p405
aVrotateY
p406
aVrotateZ
p407
aaF0
aF0
aF0
aF0
aF0
aF0
aa(lp408
S'pinky_metacarpal_ctrl_l'
p409
a(lp410
VrotateX
p411
aVrotateY
p412
aVrotateZ
p413
aaF0
aF0.29436197409999998
aF3.1550583470000002
aa(lp414
S'pinky_metacarpal_ctrl_r'
p415
a(lp416
VrotateX
p417
aVrotateY
p418
aVrotateZ
p419
aaF0
aF0.29436197409999998
aF3.1550583470000002
aa(lp420
S'pinky_finger_fk_ctrl_1_l'
p421
a(lp422
VtranslateX
p423
aVtranslateY
p424
aVtranslateZ
p425
aVrotateX
p426
aVrotateY
p427
aVrotateZ
p428
aVsticky
p429
aaF0
aF0
aF0
aF-0.4250018418
aF6.4714769199999997
aF7.9148873250000005
aF0
aa(lp430
S'pinky_finger_fk_ctrl_1_r'
p431
a(lp432
VtranslateX
p433
aVtranslateY
p434
aVtranslateZ
p435
aVrotateX
p436
aVrotateY
p437
aVrotateZ
p438
aVsticky
p439
aaF0
aF0
aF0
aF-0.4250018418
aF6.4714769199999997
aF7.9148873250000005
aF0
aa(lp440
S'pinky_finger_fk_ctrl_2_l'
p441
a(lp442
VtranslateX
p443
aVtranslateY
p444
aVtranslateZ
p445
aVrotateX
p446
aVrotateY
p447
aVrotateZ
p448
aaF0
aF0
aF0
aF0
aF0
aF39.3905174
aa(lp449
S'pinky_finger_fk_ctrl_2_r'
p450
a(lp451
VtranslateX
p452
aVtranslateY
p453
aVtranslateZ
p454
aVrotateX
p455
aVrotateY
p456
aVrotateZ
p457
aaF0
aF0
aF0
aF0
aF0
aF39.3905174
aa(lp458
S'pinky_finger_fk_ctrl_3_l'
p459
a(lp460
VtranslateX
p461
aVtranslateY
p462
aVtranslateZ
p463
aVrotateX
p464
aVrotateY
p465
aVrotateZ
p466
aaF0
aF0
aF0
aF0
aF0
aF12.804350980000001
aa(lp467
S'pinky_finger_fk_ctrl_3_r'
p468
a(lp469
VtranslateX
p470
aVtranslateY
p471
aVtranslateZ
p472
aVrotateX
p473
aVrotateY
p474
aVrotateZ
p475
aaF0
aF0
aF0
aF0
aF0
aF12.804350980000001
aa(lp476
S'ring_metacarpal_ctrl_l'
p477
a(lp478
VrotateX
p479
aVrotateY
p480
aVrotateZ
p481
aaF0
aF0
aF0
aa(lp482
S'ring_metacarpal_ctrl_r'
p483
a(lp484
VrotateX
p485
aVrotateY
p486
aVrotateZ
p487
aaF0
aF0
aF0
aa(lp488
S'ring_finger_fk_ctrl_1_l'
p489
a(lp490
VtranslateX
p491
aVtranslateY
p492
aVtranslateZ
p493
aVrotateX
p494
aVrotateY
p495
aVrotateZ
p496
aVsticky
p497
aaF0
aF0
aF0
aF0.12218283760000001
aF1.3051238380000001
aF9.6923258879999992
aF0
aa(lp498
S'ring_finger_fk_ctrl_1_r'
p499
a(lp500
VtranslateX
p501
aVtranslateY
p502
aVtranslateZ
p503
aVrotateX
p504
aVrotateY
p505
aVrotateZ
p506
aVsticky
p507
aaF0
aF0
aF0
aF0.12218283760000001
aF1.3051238380000001
aF9.6923258879999992
aF0
aa(lp508
S'ring_finger_fk_ctrl_2_l'
p509
a(lp510
VtranslateX
p511
aVtranslateY
p512
aVtranslateZ
p513
aVrotateX
p514
aVrotateY
p515
aVrotateZ
p516
aaF0
aF0
aF0
aF0
aF0
aF26.540039520000001
aa(lp517
S'ring_finger_fk_ctrl_2_r'
p518
a(lp519
VtranslateX
p520
aVtranslateY
p521
aVtranslateZ
p522
aVrotateX
p523
aVrotateY
p524
aVrotateZ
p525
aaF0
aF0
aF0
aF0
aF0
aF26.540039520000001
aa(lp526
S'ring_finger_fk_ctrl_3_l'
p527
a(lp528
VtranslateX
p529
aVtranslateY
p530
aVtranslateZ
p531
aVrotateX
p532
aVrotateY
p533
aVrotateZ
p534
aaF0
aF0
aF0
aF0
aF0
aF9.3836626360000004
aa(lp535
S'ring_finger_fk_ctrl_3_r'
p536
a(lp537
VtranslateX
p538
aVtranslateY
p539
aVtranslateZ
p540
aVrotateX
p541
aVrotateY
p542
aVrotateZ
p543
aaF0
aF0
aF0
aF0
aF0
aF9.3836626360000004
aa(lp544
S'middle_metacarpal_ctrl_l'
p545
a(lp546
VrotateX
p547
aVrotateY
p548
aVrotateZ
p549
aaF0
aF0
aF0
aa(lp550
S'middle_metacarpal_ctrl_r'
p551
a(lp552
VrotateX
p553
aVrotateY
p554
aVrotateZ
p555
aaF0
aF0
aF0
aa(lp556
S'middle_finger_fk_ctrl_1_l'
p557
a(lp558
VtranslateX
p559
aVtranslateY
p560
aVtranslateZ
p561
aVrotateX
p562
aVrotateY
p563
aVrotateZ
p564
aVsticky
p565
aaF0
aF0
aF0
aF0
aF0
aF1.42494476
aF0
aa(lp566
S'middle_finger_fk_ctrl_1_r'
p567
a(lp568
VtranslateX
p569
aVtranslateY
p570
aVtranslateZ
p571
aVrotateX
p572
aVrotateY
p573
aVrotateZ
p574
aVsticky
p575
aaF0
aF0
aF0
aF0
aF0
aF1.42494476
aF0
aa(lp576
S'middle_finger_fk_ctrl_2_l'
p577
a(lp578
VtranslateX
p579
aVtranslateY
p580
aVtranslateZ
p581
aVrotateX
p582
aVrotateY
p583
aVrotateZ
p584
aaF0
aF0
aF0
aF0
aF0
aF13.07013151
aa(lp585
S'middle_finger_fk_ctrl_2_r'
p586
a(lp587
VtranslateX
p588
aVtranslateY
p589
aVtranslateZ
p590
aVrotateX
p591
aVrotateY
p592
aVrotateZ
p593
aaF0
aF0
aF0
aF0
aF0
aF13.07013151
aa(lp594
S'middle_finger_fk_ctrl_3_l'
p595
a(lp596
VtranslateX
p597
aVtranslateY
p598
aVtranslateZ
p599
aVrotateX
p600
aVrotateY
p601
aVrotateZ
p602
aaF0
aF0
aF0
aF0
aF0
aF11.9622385
aa(lp603
S'middle_finger_fk_ctrl_3_r'
p604
a(lp605
VtranslateX
p606
aVtranslateY
p607
aVtranslateZ
p608
aVrotateX
p609
aVrotateY
p610
aVrotateZ
p611
aaF0
aF0
aF0
aF0
aF0
aF11.9622385
aa(lp612
S'index_metacarpal_ctrl_l'
p613
a(lp614
VrotateX
p615
aVrotateY
p616
aVrotateZ
p617
aaF0
aF-0.39898574399999998
aF0
aa(lp618
S'index_metacarpal_ctrl_r'
p619
a(lp620
VrotateX
p621
aVrotateY
p622
aVrotateZ
p623
aaF0
aF-0.39898574399999998
aF0
aa(lp624
S'index_finger_fk_ctrl_1_l'
p625
a(lp626
VtranslateX
p627
aVtranslateY
p628
aVtranslateZ
p629
aVrotateX
p630
aVrotateY
p631
aVrotateZ
p632
aVsticky
p633
aaF0
aF0
aF0
aF0
aF0
aF2.6785281520000002
aF0
aa(lp634
S'index_finger_fk_ctrl_1_r'
p635
a(lp636
VtranslateX
p637
aVtranslateY
p638
aVtranslateZ
p639
aVrotateX
p640
aVrotateY
p641
aVrotateZ
p642
aVsticky
p643
aaF0
aF0
aF0
aF0
aF0
aF2.6785281520000002
aF0
aa(lp644
S'index_finger_fk_ctrl_2_l'
p645
a(lp646
VtranslateX
p647
aVtranslateY
p648
aVtranslateZ
p649
aVrotateX
p650
aVrotateY
p651
aVrotateZ
p652
aaF0
aF0
aF0
aF0
aF0
aF6.3826249629999996
aa(lp653
S'index_finger_fk_ctrl_2_r'
p654
a(lp655
VtranslateX
p656
aVtranslateY
p657
aVtranslateZ
p658
aVrotateX
p659
aVrotateY
p660
aVrotateZ
p661
aaF0
aF0
aF0
aF0
aF0
aF6.3826249629999996
aa(lp662
S'index_finger_fk_ctrl_3_l'
p663
a(lp664
VtranslateX
p665
aVtranslateY
p666
aVtranslateZ
p667
aVrotateX
p668
aVrotateY
p669
aVrotateZ
p670
aaF0
aF0
aF0
aF0
aF0
aF3.7672390280000001
aa(lp671
S'index_finger_fk_ctrl_3_r'
p672
a(lp673
VtranslateX
p674
aVtranslateY
p675
aVtranslateZ
p676
aVrotateX
p677
aVrotateY
p678
aVrotateZ
p679
aaF0
aF0
aF0
aF0
aF0
aF3.7672390280000001
aa(lp680
S'thumb_finger_fk_ctrl_1_l'
p681
a(lp682
VtranslateX
p683
aVtranslateY
p684
aVtranslateZ
p685
aVrotateX
p686
aVrotateY
p687
aVrotateZ
p688
aVsticky
p689
aaF0
aF0
aF0
aF-6.7669023025744526
aF-16.43818444420182
aF6.315208670121975
aF0
aa(lp690
S'thumb_finger_fk_ctrl_1_r'
p691
a(lp692
VtranslateX
p693
aVtranslateY
p694
aVtranslateZ
p695
aVrotateX
p696
aVrotateY
p697
aVrotateZ
p698
aVsticky
p699
aaF0
aF0
aF0
aF-6.7669023025744526
aF-16.43818444420182
aF6.315208670121975
aF0
aa(lp700
S'thumb_finger_fk_ctrl_2_l'
p701
a(lp702
VtranslateX
p703
aVtranslateY
p704
aVtranslateZ
p705
aVrotateX
p706
aVrotateY
p707
aVrotateZ
p708
aaF0
aF0
aF0
aF0
aF0
aF17.574516350404419
aa(lp709
S'thumb_finger_fk_ctrl_2_r'
p710
a(lp711
VtranslateX
p712
aVtranslateY
p713
aVtranslateZ
p714
aVrotateX
p715
aVrotateY
p716
aVrotateZ
p717
aaF0
aF0
aF0
aF0
aF0
aF17.574516350404419
aa(lp718
S'thumb_finger_fk_ctrl_3_l'
p719
a(lp720
VtranslateX
p721
aVtranslateY
p722
aVtranslateZ
p723
aVrotateX
p724
aVrotateY
p725
aVrotateZ
p726
aaF0
aF0
aF0
aF0
aF0
aF4.7566897911614712
aa(lp727
S'thumb_finger_fk_ctrl_3_r'
p728
a(lp729
VtranslateX
p730
aVtranslateY
p731
aVtranslateZ
p732
aVrotateX
p733
aVrotateY
p734
aVrotateZ
p735
aaF0
aF0
aF0
aF0
aF0
aF4.7566897911614712
aa(lp736
S'index_l_ik_anim'
p737
a(lp738
VtranslateX
p739
aVtranslateY
p740
aVtranslateZ
p741
aVrotateX
p742
aVrotateY
p743
aVrotateZ
p744
aVpoleVectorVis
p745
aaF0
aF0
aF0
aF0
aF0
aF0
aF0
aa(lp746
S'index_r_ik_anim'
p747
a(lp748
VtranslateX
p749
aVtranslateY
p750
aVtranslateZ
p751
aVrotateX
p752
aVrotateY
p753
aVrotateZ
p754
aVpoleVectorVis
p755
aaF0
aF0
aF0
aF0
aF0
aF0
aF0
aa(lp756
S'middle_l_ik_anim'
p757
a(lp758
VtranslateX
p759
aVtranslateY
p760
aVtranslateZ
p761
aVrotateX
p762
aVrotateY
p763
aVrotateZ
p764
aVpoleVectorVis
p765
aaF0
aF0
aF0
aF0
aF0
aF0
aF0
aa(lp766
S'middle_r_ik_anim'
p767
a(lp768
VtranslateX
p769
aVtranslateY
p770
aVtranslateZ
p771
aVrotateX
p772
aVrotateY
p773
aVrotateZ
p774
aVpoleVectorVis
p775
aaF0
aF0
aF0
aF0
aF0
aF0
aF0
aa(lp776
S'ring_l_ik_anim'
p777
a(lp778
VtranslateX
p779
aVtranslateY
p780
aVtranslateZ
p781
aVrotateX
p782
aVrotateY
p783
aVrotateZ
p784
aVpoleVectorVis
p785
aaF0
aF0
aF0
aF0
aF0
aF0
aF0
aa(lp786
S'ring_r_ik_anim'
p787
a(lp788
VtranslateX
p789
aVtranslateY
p790
aVtranslateZ
p791
aVrotateX
p792
aVrotateY
p793
aVrotateZ
p794
aVpoleVectorVis
p795
aaF0
aF0
aF0
aF0
aF0
aF0
aF0
aa(lp796
S'pinky_l_ik_anim'
p797
a(lp798
VtranslateX
p799
aVtranslateY
p800
aVtranslateZ
p801
aVrotateX
p802
aVrotateY
p803
aVrotateZ
p804
aVpoleVectorVis
p805
aaF0
aF0
aF0
aF0
aF0
aF0
aF0
aa(lp806
S'pinky_r_ik_anim'
p807
a(lp808
VtranslateX
p809
aVtranslateY
p810
aVtranslateZ
p811
aVrotateX
p812
aVrotateY
p813
aVrotateZ
p814
aVpoleVectorVis
p815
aaF0
aF0
aF0
aF0
aF0
aF0
aF0
aa(lp816
S'thumb_l_ik_anim'
p817
a(lp818
VtranslateX
p819
aVtranslateY
p820
aVtranslateZ
p821
aVrotateX
p822
aVrotateY
p823
aVrotateZ
p824
aVpoleVectorVis
p825
aaF0
aF0
aF0
aF0
aF0
aF0
aF0
aa(lp826
S'thumb_r_ik_anim'
p827
a(lp828
VtranslateX
p829
aVtranslateY
p830
aVtranslateZ
p831
aVrotateX
p832
aVrotateY
p833
aVrotateZ
p834
aVpoleVectorVis
p835
aaF0
aF0
aF0
aF0
aF0
aF0
aF0
aa(lp836
S'index_l_poleVector'
p837
a(lp838
VtranslateX
p839
aVtranslateY
p840
aVtranslateZ
p841
aVrotateX
p842
aVrotateY
p843
aVrotateZ
p844
aaF0
aF0
aF0
aF0
aF0
aF0
aa(lp845
S'index_r_poleVector'
p846
a(lp847
VtranslateX
p848
aVtranslateY
p849
aVtranslateZ
p850
aVrotateX
p851
aVrotateY
p852
aVrotateZ
p853
aaF0
aF0
aF0
aF0
aF0
aF0
aa(lp854
S'middle_l_poleVector'
p855
a(lp856
VtranslateX
p857
aVtranslateY
p858
aVtranslateZ
p859
aVrotateX
p860
aVrotateY
p861
aVrotateZ
p862
aaF0
aF0
aF0
aF0
aF0
aF0
aa(lp863
S'middle_r_poleVector'
p864
a(lp865
VtranslateX
p866
aVtranslateY
p867
aVtranslateZ
p868
aVrotateX
p869
aVrotateY
p870
aVrotateZ
p871
aaF0
aF0
aF0
aF0
aF0
aF0
aa(lp872
S'ring_l_poleVector'
p873
a(lp874
VtranslateX
p875
aVtranslateY
p876
aVtranslateZ
p877
aVrotateX
p878
aVrotateY
p879
aVrotateZ
p880
aaF0
aF0
aF0
aF0
aF0
aF0
aa(lp881
S'ring_r_poleVector'
p882
a(lp883
VtranslateX
p884
aVtranslateY
p885
aVtranslateZ
p886
aVrotateX
p887
aVrotateY
p888
aVrotateZ
p889
aaF0
aF0
aF0
aF0
aF0
aF0
aa(lp890
S'pinky_l_poleVector'
p891
a(lp892
VtranslateX
p893
aVtranslateY
p894
aVtranslateZ
p895
aVrotateX
p896
aVrotateY
p897
aVrotateZ
p898
aaF0
aF0
aF0
aF0
aF0
aF0
aa(lp899
S'pinky_r_poleVector'
p900
a(lp901
VtranslateX
p902
aVtranslateY
p903
aVtranslateZ
p904
aVrotateX
p905
aVrotateY
p906
aVrotateZ
p907
aaF0
aF0
aF0
aF0
aF0
aF0
aa(lp908
S'thumb_l_poleVector'
p909
a(lp910
VtranslateX
p911
aVtranslateY
p912
aVtranslateZ
p913
aVrotateX
p914
aVrotateY
p915
aVrotateZ
p916
aaF0
aF0
aF0
aF0
aF0
aF0
aa(lp917
S'thumb_r_poleVector'
p918
a(lp919
VtranslateX
p920
aVtranslateY
p921
aVtranslateZ
p922
aVrotateX
p923
aVrotateY
p924
aVrotateZ
p925
aaF0
aF0
aF0
aF0
aF0
aF0
aa(lp926
S'l_global_ik_anim'
p927
a(lp928
VtranslateX
p929
aVtranslateY
p930
aVtranslateZ
p931
aVrotateX
p932
aVrotateY
p933
aVrotateZ
p934
aaF0
aF0
aF0
aF0
aF0
aF0
aa(lp935
S'r_global_ik_anim'
p936
a(lp937
VtranslateX
p938
aVtranslateY
p939
aVtranslateZ
p940
aVrotateX
p941
aVrotateY
p942
aVrotateZ
p943
aaF0
aF0
aF0
aF0
aF0
aF0
aa(lp944
S'Rig_Settings'
p945
a(lp946
Vspine_ik
p947
aVspine_fk
p948
aVlLegMode
p949
aVlThighTwistAmount
p950
aVlCalfTwistAmount
p951
aVrLegMode
p952
aVrThighTwistAmount
p953
aVrCalfTwistAmount
p954
aVlFkArmOrient
p955
aVrFkArmOrient
p956
aVlArmMode
p957
aVlUpperarmTwistAmount
p958
aVlForearmTwistAmount
p959
aVrArmMode
p960
aVrUpperarmTwistAmount
p961
aVrForearmTwistAmount
p962
aaF1
aF0
aI1
aF0.90000000000000002
aF0.5
aI1
aF0.90000000000000002
aF0.5
aI0
aI0
aI1
aF0.90000000000000002
aF0.5
aI1
aF0.90000000000000002
aF0.5
aa(lp963
Vbigtoe_ik_ctrl_l_grp_space_switcher
p964
a(lp965
Vvisibility
p966
aVtranslateX
p967
aVtranslateY
p968
aVtranslateZ
p969
aVrotateX
p970
aVrotateY
p971
aVrotateZ
p972
aVscaleX
p973
aVscaleY
p974
aVscaleZ
p975
aVspace_world
p976
aaI01
aF1.7763568394002505e-15
aF-4.4408920985006262e-16
aF0
aF-7.9513867036587939e-16
aF-0
aF0
aF1
aF0.99999999999999989
aF0.99999999999999989
aF0
aa(lp977
Vbigtoe_ik_ctrl_r_grp_space_switcher
p978
a(lp979
Vvisibility
p980
aVtranslateX
p981
aVtranslateY
p982
aVtranslateZ
p983
aVrotateX
p984
aVrotateY
p985
aVrotateZ
p986
aVscaleX
p987
aVscaleY
p988
aVscaleZ
p989
aVspace_world
p990
aaI01
aF1.7763568394002505e-15
aF0
aF0
aF0
aF-9.9392333795734899e-17
aF0
aF1
aF0.99999999999999989
aF0.99999999999999989
aF0
aa(lp991
Vbody_anim_space_switcher
p992
a(lp993
Vvisibility
p994
aVtranslateX
p995
aVtranslateY
p996
aVtranslateZ
p997
aVrotateX
p998
aVrotateY
p999
aVrotateZ
p1000
aVscaleX
p1001
aVscaleY
p1002
aVscaleZ
p1003
aVspace_world
p1004
aaI01
aF0
aF0
aF0
aF0
aF0
aF0
aF1
aF1
aF1
aF0
aa(lp1005
Vchest_ik_anim_space_switcher
p1006
a(lp1007
Vvisibility
p1008
aVtranslateX
p1009
aVtranslateY
p1010
aVtranslateZ
p1011
aVrotateX
p1012
aVrotateY
p1013
aVrotateZ
p1014
aVscaleX
p1015
aVscaleY
p1016
aVscaleZ
p1017
aVspace_world
p1018
aVspace_chest_ik_world_aligned
p1019
aaI01
aF0
aF0
aF2.5243548967072378e-29
aF0
aF-1.1299600123008406e-29
aF0
aF1
aF1
aF1
aF0
aF0
aa(lp1020
Vik_elbow_l_anim_space_switcher
p1021
a(lp1022
Vvisibility
p1023
aVtranslateX
p1024
aVtranslateY
p1025
aVtranslateZ
p1026
aVrotateX
p1027
aVrotateY
p1028
aVrotateZ
p1029
aVscaleX
p1030
aVscaleY
p1031
aVscaleZ
p1032
aVspace_world
p1033
aVspace_body_anim
p1034
aVspace_chest_ik_anim
p1035
aaI01
aF0
aF0
aF0
aF0
aF0
aF0
aF1
aF1
aF1
aF0
aF0
aF0
aa(lp1036
Vik_elbow_r_anim_space_switcher
p1037
a(lp1038
Vvisibility
p1039
aVtranslateX
p1040
aVtranslateY
p1041
aVtranslateZ
p1042
aVrotateX
p1043
aVrotateY
p1044
aVrotateZ
p1045
aVscaleX
p1046
aVscaleY
p1047
aVscaleZ
p1048
aVspace_world
p1049
aVspace_body_anim
p1050
aVspace_chest_ik_anim
p1051
aaI01
aF0
aF0
aF0
aF0
aF0
aF0
aF1
aF1
aF1
aF0
aF0
aF0
aa(lp1052
Vik_foot_anim_l_space_switcher
p1053
a(lp1054
Vvisibility
p1055
aVtranslateX
p1056
aVtranslateY
p1057
aVtranslateZ
p1058
aVrotateX
p1059
aVrotateY
p1060
aVrotateZ
p1061
aVscaleX
p1062
aVscaleY
p1063
aVscaleZ
p1064
aVspace_world
p1065
aVspace_body_anim
p1066
aaI01
aF0
aF0
aF0
aF0
aF0
aF0
aF1
aF1
aF1
aF0
aF0
aa(lp1067
Vik_foot_anim_r_space_switcher
p1068
a(lp1069
Vvisibility
p1070
aVtranslateX
p1071
aVtranslateY
p1072
aVtranslateZ
p1073
aVrotateX
p1074
aVrotateY
p1075
aVrotateZ
p1076
aVscaleX
p1077
aVscaleY
p1078
aVscaleZ
p1079
aVspace_world
p1080
aVspace_body_anim
p1081
aaI01
aF0
aF0
aF0
aF0
aF0
aF0
aF1
aF1
aF1
aF0
aF0
aa(lp1082
Vik_wrist_l_anim_space_switcher
p1083
a(lp1084
Vvisibility
p1085
aVtranslateX
p1086
aVtranslateY
p1087
aVtranslateZ
p1088
aVrotateX
p1089
aVrotateY
p1090
aVrotateZ
p1091
aVscaleX
p1092
aVscaleY
p1093
aVscaleZ
p1094
aVspace_world
p1095
aVspace_body_anim
p1096
aVspace_head_fk_anim
p1097
aVspace_chest_ik_anim
p1098
aaI01
aF0
aF0
aF0
aF0
aF0
aF0
aF1
aF1
aF1
aF0
aF0
aF0
aF0
aa(lp1099
Vik_wrist_r_anim_space_switcher
p1100
a(lp1101
Vvisibility
p1102
aVtranslateX
p1103
aVtranslateY
p1104
aVtranslateZ
p1105
aVrotateX
p1106
aVrotateY
p1107
aVrotateZ
p1108
aVscaleX
p1109
aVscaleY
p1110
aVscaleZ
p1111
aVspace_world
p1112
aVspace_body_anim
p1113
aVspace_head_fk_anim
p1114
aVspace_chest_ik_anim
p1115
aaI01
aF0
aF0
aF0
aF0
aF0
aF0
aF1
aF1
aF1
aF0
aF0
aF0
aF0
aa(lp1116
Vindex_ik_ctrl_l_grp_space_switcher
p1117
a(lp1118
Vvisibility
p1119
aVtranslateX
p1120
aVtranslateY
p1121
aVtranslateZ
p1122
aVrotateX
p1123
aVrotateY
p1124
aVrotateZ
p1125
aVscaleX
p1126
aVscaleY
p1127
aVscaleZ
p1128
aVspace_world
p1129
aaI01
aF0
aF-4.4408920985006262e-16
aF0
aF0
aF3.6650923087177246e-16
aF7.9513867036587919e-16
aF1
aF1
aF1.0000000000000002
aF0
aa(lp1130
Vindex_ik_ctrl_r_grp_space_switcher
p1131
a(lp1132
Vvisibility
p1133
aVtranslateX
p1134
aVtranslateY
p1135
aVtranslateZ
p1136
aVrotateX
p1137
aVrotateY
p1138
aVrotateZ
p1139
aVscaleX
p1140
aVscaleY
p1141
aVscaleZ
p1142
aVspace_world
p1143
aaI01
aF-1.7763568394002505e-15
aF-4.4408920985006262e-16
aF-8.8817841970012523e-16
aF-9.9392333795734899e-17
aF6.2120208622334312e-17
aF7.9513867036587919e-16
aF1
aF1
aF1
aF0
aa(lp1144
Vl_global_ik_anim_space_switcher
p1145
a(lp1146
Vvisibility
p1147
aVtranslateX
p1148
aVtranslateY
p1149
aVtranslateZ
p1150
aVrotateX
p1151
aVrotateY
p1152
aVrotateZ
p1153
aVscaleX
p1154
aVscaleY
p1155
aVscaleZ
p1156
aVspace_world
p1157
aaI01
aF0
aF0
aF0
aF0
aF0
aF0
aF1
aF1
aF1
aF0
aa(lp1158
Vmaster_anim_space_switcher
p1159
a(lp1160
Vvisibility
p1161
aVtranslateX
p1162
aVtranslateY
p1163
aVtranslateZ
p1164
aVrotateX
p1165
aVrotateY
p1166
aVrotateZ
p1167
aVscaleX
p1168
aVscaleY
p1169
aVscaleZ
p1170
aVspace_world
p1171
aaI01
aF0
aF0
aF0
aF0
aF0
aF0
aF1
aF1
aF1
aF0
aa(lp1172
Vmiddle_ik_ctrl_l_grp_space_switcher
p1173
a(lp1174
Vvisibility
p1175
aVtranslateX
p1176
aVtranslateY
p1177
aVtranslateZ
p1178
aVrotateX
p1179
aVrotateY
p1180
aVrotateZ
p1181
aVscaleX
p1182
aVscaleY
p1183
aVscaleZ
p1184
aVspace_world
p1185
aaI01
aF0
aF8.8817841970012523e-16
aF1.7763568394002505e-15
aF9.9392333795734899e-17
aF-3.8514529345847282e-16
aF3.1805546814635176e-15
aF0.99999999999999989
aF1
aF1
aF0
aa(lp1186
Vmiddle_ik_ctrl_r_grp_space_switcher
p1187
a(lp1188
Vvisibility
p1189
aVtranslateX
p1190
aVtranslateY
p1191
aVtranslateZ
p1192
aVrotateX
p1193
aVrotateY
p1194
aVrotateZ
p1195
aVscaleX
p1196
aVscaleY
p1197
aVscaleZ
p1198
aVspace_world
p1199
aaI01
aF0
aF8.8817841970012523e-16
aF8.8817841970012523e-16
aF-4.9696166897867449e-17
aF5.3423379415207502e-16
aF0
aF1.0000000000000002
aF1
aF1.0000000000000002
aF0
aa(lp1200
Vr_global_ik_anim_space_switcher
p1201
a(lp1202
Vvisibility
p1203
aVtranslateX
p1204
aVtranslateY
p1205
aVtranslateZ
p1206
aVrotateX
p1207
aVrotateY
p1208
aVrotateZ
p1209
aVscaleX
p1210
aVscaleY
p1211
aVscaleZ
p1212
aVspace_world
p1213
aaI01
aF0
aF0
aF0
aF0
aF0
aF0
aF1
aF1
aF1
aF0
aa(lp1214
Vring_ik_ctrl_l_grp_space_switcher
p1215
a(lp1216
Vvisibility
p1217
aVtranslateX
p1218
aVtranslateY
p1219
aVtranslateZ
p1220
aVrotateX
p1221
aVrotateY
p1222
aVrotateZ
p1223
aVscaleX
p1224
aVscaleY
p1225
aVscaleZ
p1226
aVspace_world
p1227
aaI01
aF0
aF0
aF0
aF0
aF9.9392333795734899e-17
aF-1.5902773407317584e-15
aF1
aF1
aF1
aF0
aa(lp1228
Vring_ik_ctrl_r_grp_space_switcher
p1229
a(lp1230
Vvisibility
p1231
aVtranslateX
p1232
aVtranslateY
p1233
aVtranslateZ
p1234
aVrotateX
p1235
aVrotateY
p1236
aVrotateZ
p1237
aVscaleX
p1238
aVscaleY
p1239
aVscaleZ
p1240
aVspace_world
p1241
aaI01
aF0
aF0
aF-1.7763568394002505e-15
aF4.9696166897867437e-17
aF-1.0560435465796834e-16
aF-1.5902773407317584e-15
aF1
aF1.0000000000000002
aF1
aF0
aa(lp1242
Vspine_01_space_switcher
p1243
a(lp1244
Vvisibility
p1245
aVtranslateX
p1246
aVtranslateY
p1247
aVtranslateZ
p1248
aVrotateX
p1249
aVrotateY
p1250
aVrotateZ
p1251
aVscaleX
p1252
aVscaleY
p1253
aVscaleZ
p1254
aVspace_world
p1255
aaI01
aF0
aF0
aF1.2621774483536189e-29
aF0
aF-5.649800061504203e-30
aF0
aF1
aF1
aF1
aF0
aa.