(lp1
(lp2
Vindex_metacarpal_ctrl_r
p3
a(lp4
VrotateX
p5
aVrotateY
p6
aVrotateZ
p7
aaF0
aF-0.39898574399999998
aF0
aa(lp8
Vmiddle_metacarpal_ctrl_r
p9
a(lp10
VrotateX
p11
aVrotateY
p12
aVrotateZ
p13
aaF0
aF0
aF0
aa(lp14
Vring_metacarpal_ctrl_r
p15
a(lp16
VrotateX
p17
aVrotateY
p18
aVrotateZ
p19
aaF0
aF0
aF0
aa(lp20
Vpinky_metacarpal_ctrl_r
p21
a(lp22
VrotateX
p23
aVrotateY
p24
aVrotateZ
p25
aaF0
aF0.29436197409999998
aF3.1550583470000002
aa(lp26
Vindex_finger_fk_ctrl_1_r
p27
a(lp28
VtranslateX
p29
aVtranslateY
p30
aVtranslateZ
p31
aVrotateX
p32
aVrotateY
p33
aVrotateZ
p34
aVsticky
p35
aaF0
aF0
aF0
aF0
aF0
aF2.6785281520000002
aF0
aa(lp36
Vmiddle_finger_fk_ctrl_1_r
p37
a(lp38
VtranslateX
p39
aVtranslateY
p40
aVtranslateZ
p41
aVrotateX
p42
aVrotateY
p43
aVrotateZ
p44
aVsticky
p45
aaF0
aF0
aF0
aF0
aF0
aF1.42494476
aF0
aa(lp46
Vring_finger_fk_ctrl_1_r
p47
a(lp48
VtranslateX
p49
aVtranslateY
p50
aVtranslateZ
p51
aVrotateX
p52
aVrotateY
p53
aVrotateZ
p54
aVsticky
p55
aaF0
aF0
aF0
aF0.12218283760000001
aF1.3051238380000001
aF9.6923258879999992
aF0
aa(lp56
Vpinky_finger_fk_ctrl_1_r
p57
a(lp58
VtranslateX
p59
aVtranslateY
p60
aVtranslateZ
p61
aVrotateX
p62
aVrotateY
p63
aVrotateZ
p64
aVsticky
p65
aaF0
aF0
aF0
aF-0.4250018418
aF6.4714769199999997
aF7.9148873250000005
aF0
aa(lp66
Vthumb_finger_fk_ctrl_1_r
p67
a(lp68
VtranslateX
p69
aVtranslateY
p70
aVtranslateZ
p71
aVrotateX
p72
aVrotateY
p73
aVrotateZ
p74
aVsticky
p75
aaF0
aF0
aF0
aF-6.7669023025744526
aF-16.43818444420182
aF6.315208670121975
aF0
aa(lp76
Vindex_finger_fk_ctrl_2_r
p77
a(lp78
VtranslateX
p79
aVtranslateY
p80
aVtranslateZ
p81
aVrotateX
p82
aVrotateY
p83
aVrotateZ
p84
aaF0
aF0
aF0
aF0
aF0
aF6.3826249629999996
aa(lp85
Vmiddle_finger_fk_ctrl_2_r
p86
a(lp87
VtranslateX
p88
aVtranslateY
p89
aVtranslateZ
p90
aVrotateX
p91
aVrotateY
p92
aVrotateZ
p93
aaF0
aF0
aF0
aF0
aF0
aF13.07013151
aa(lp94
Vring_finger_fk_ctrl_2_r
p95
a(lp96
VtranslateX
p97
aVtranslateY
p98
aVtranslateZ
p99
aVrotateX
p100
aVrotateY
p101
aVrotateZ
p102
aaF0
aF0
aF0
aF0
aF0
aF26.540039520000001
aa(lp103
Vpinky_finger_fk_ctrl_2_r
p104
a(lp105
VtranslateX
p106
aVtranslateY
p107
aVtranslateZ
p108
aVrotateX
p109
aVrotateY
p110
aVrotateZ
p111
aaF0
aF0
aF0
aF0
aF0
aF39.3905174
aa(lp112
Vthumb_finger_fk_ctrl_2_r
p113
a(lp114
VtranslateX
p115
aVtranslateY
p116
aVtranslateZ
p117
aVrotateX
p118
aVrotateY
p119
aVrotateZ
p120
aaF0
aF0
aF0
aF0
aF0
aF17.574516350404419
aa(lp121
Vindex_finger_fk_ctrl_3_r
p122
a(lp123
VtranslateX
p124
aVtranslateY
p125
aVtranslateZ
p126
aVrotateX
p127
aVrotateY
p128
aVrotateZ
p129
aaF0
aF0
aF0
aF0
aF0
aF3.7672390280000001
aa(lp130
Vmiddle_finger_fk_ctrl_3_r
p131
a(lp132
VtranslateX
p133
aVtranslateY
p134
aVtranslateZ
p135
aVrotateX
p136
aVrotateY
p137
aVrotateZ
p138
aaF0
aF0
aF0
aF0
aF0
aF11.9622385
aa(lp139
Vring_finger_fk_ctrl_3_r
p140
a(lp141
VtranslateX
p142
aVtranslateY
p143
aVtranslateZ
p144
aVrotateX
p145
aVrotateY
p146
aVrotateZ
p147
aaF0
aF0
aF0
aF0
aF0
aF9.3836626360000004
aa(lp148
Vpinky_finger_fk_ctrl_3_r
p149
a(lp150
VtranslateX
p151
aVtranslateY
p152
aVtranslateZ
p153
aVrotateX
p154
aVrotateY
p155
aVrotateZ
p156
aaF0
aF0
aF0
aF0
aF0
aF12.804350980000001
aa(lp157
Vthumb_finger_fk_ctrl_3_r
p158
a(lp159
VtranslateX
p160
aVtranslateY
p161
aVtranslateZ
p162
aVrotateX
p163
aVrotateY
p164
aVrotateZ
p165
aaF0
aF0
aF0
aF0
aF0
aF4.7566897911614712
aa(lp166
Vindex_r_poleVector
p167
a(lp168
VtranslateX
p169
aVtranslateY
p170
aVtranslateZ
p171
aVrotateX
p172
aVrotateY
p173
aVrotateZ
p174
aaF0
aF0
aF0
aF0
aF0
aF0
aa(lp175
Vmiddle_r_poleVector
p176
a(lp177
VtranslateX
p178
aVtranslateY
p179
aVtranslateZ
p180
aVrotateX
p181
aVrotateY
p182
aVrotateZ
p183
aaF0
aF0
aF0
aF0
aF0
aF0
aa(lp184
Vring_r_poleVector
p185
a(lp186
VtranslateX
p187
aVtranslateY
p188
aVtranslateZ
p189
aVrotateX
p190
aVrotateY
p191
aVrotateZ
p192
aaF0
aF0
aF0
aF0
aF0
aF0
aa(lp193
Vpinky_r_poleVector
p194
a(lp195
VtranslateX
p196
aVtranslateY
p197
aVtranslateZ
p198
aVrotateX
p199
aVrotateY
p200
aVrotateZ
p201
aaF0
aF0
aF0
aF0
aF0
aF0
aa(lp202
Vthumb_r_poleVector
p203
a(lp204
VtranslateX
p205
aVtranslateY
p206
aVtranslateZ
p207
aVrotateX
p208
aVrotateY
p209
aVrotateZ
p210
aaF0
aF0
aF0
aF0
aF0
aF0
aa(lp211
Vindex_r_ik_anim
p212
a(lp213
VtranslateX
p214
aVtranslateY
p215
aVtranslateZ
p216
aVrotateX
p217
aVrotateY
p218
aVrotateZ
p219
aVpoleVectorVis
p220
aaF0
aF0
aF0
aF0
aF0
aF0
aF0
aa(lp221
Vmiddle_r_ik_anim
p222
a(lp223
VtranslateX
p224
aVtranslateY
p225
aVtranslateZ
p226
aVrotateX
p227
aVrotateY
p228
aVrotateZ
p229
aVpoleVectorVis
p230
aaF0
aF0
aF0
aF0
aF0
aF0
aF0
aa(lp231
Vring_r_ik_anim
p232
a(lp233
VtranslateX
p234
aVtranslateY
p235
aVtranslateZ
p236
aVrotateX
p237
aVrotateY
p238
aVrotateZ
p239
aVpoleVectorVis
p240
aaF0
aF0
aF0
aF0
aF0
aF0
aF0
aa(lp241
Vpinky_r_ik_anim
p242
a(lp243
VtranslateX
p244
aVtranslateY
p245
aVtranslateZ
p246
aVrotateX
p247
aVrotateY
p248
aVrotateZ
p249
aVpoleVectorVis
p250
aaF0
aF0
aF0
aF0
aF0
aF0
aF0
aa(lp251
Vthumb_r_ik_anim
p252
a(lp253
VtranslateX
p254
aVtranslateY
p255
aVtranslateZ
p256
aVrotateX
p257
aVrotateY
p258
aVrotateZ
p259
aVpoleVectorVis
p260
aaF0
aF0
aF0
aF0
aF0
aF0
aF0
aa(lp261
Vr_global_ik_anim
p262
a(lp263
VtranslateX
p264
aVtranslateY
p265
aVtranslateZ
p266
aVrotateX
p267
aVrotateY
p268
aVrotateZ
p269
aaF0
aF0
aF0
aF0
aF0
aF0
aa.